; ModuleID = 'D:/BaiduNetdiskDownload/P10_SD_VGA_m/IP_REPO/VIP/TestPattern/TestPattern/.autopilot/db/a.o.3.bc'
target datalayout = "e-p:64:64:64-i1:8:8-i8:8:8-i16:16:16-i32:32:32-i64:64:64-f32:32:32-f64:64:64-v64:64:64-v128:128:128-a0:0:64-s0:64:64-f80:128:128-n8:16:32:64-S128"
target triple = "x86_64-w64-mingw32"

@test_pattern1_str = internal unnamed_addr constant [14 x i8] c"test_pattern1\00" ; [#uses=1 type=[14 x i8]*]
@llvm_global_ctors_1 = appending global [0 x void ()*] zeroinitializer ; [#uses=0 type=[0 x void ()*]*]
@llvm_global_ctors_0 = appending global [0 x i32] zeroinitializer ; [#uses=0 type=[0 x i32]*]
@imag0_0_OC_data_stre_2 = internal unnamed_addr constant [25 x i8] c"imag0_0.data_stream[0].V\00" ; [#uses=1 type=[25 x i8]*]
@imag0_0_OC_data_stre_1 = internal unnamed_addr constant [25 x i8] c"imag0_0.data_stream[1].V\00" ; [#uses=1 type=[25 x i8]*]
@imag0_0_OC_data_stre = internal unnamed_addr constant [25 x i8] c"imag0_0.data_stream[2].V\00" ; [#uses=1 type=[25 x i8]*]
@ap_fifo_str = internal unnamed_addr constant [8 x i8] c"ap_fifo\00" ; [#uses=9 type=[8 x i8]*]
@p_str7 = private unnamed_addr constant [12 x i8] c"loop_width1\00", align 1 ; [#uses=3 type=[12 x i8]*]
@p_str6 = private unnamed_addr constant [13 x i8] c"loop_height1\00", align 1 ; [#uses=3 type=[13 x i8]*]
@p_str5 = private unnamed_addr constant [24 x i8] c"-bus_bundle CONTROL_BUS\00", align 1 ; [#uses=1 type=[24 x i8]*]
@p_str4 = private unnamed_addr constant [10 x i8] c"AXI_SLAVE\00", align 1 ; [#uses=1 type=[10 x i8]*]
@p_str3 = private unnamed_addr constant [5 x i8] c"both\00", align 1 ; [#uses=2 type=[5 x i8]*]
@p_str20 = private unnamed_addr constant [12 x i8] c"hls_label_1\00", align 1 ; [#uses=2 type=[12 x i8]*]
@p_str2 = private unnamed_addr constant [5 x i8] c"axis\00", align 1 ; [#uses=2 type=[5 x i8]*]
@p_str18 = private unnamed_addr constant [12 x i8] c"hls_label_3\00", align 1 ; [#uses=2 type=[12 x i8]*]
@p_str14 = private unnamed_addr constant [11 x i8] c"loop_width\00", align 1 ; [#uses=3 type=[11 x i8]*]
@p_str13 = private unnamed_addr constant [12 x i8] c"loop_height\00", align 1 ; [#uses=3 type=[12 x i8]*]
@p_str = private unnamed_addr constant [1 x i8] zeroinitializer, align 1 ; [#uses=81 type=[1 x i8]*]

; [#uses=0]
define void @test_pattern1(i24* %src_axi0_V_data_V, i3* %src_axi0_V_keep_V, i3* %src_axi0_V_strb_V, i1* %src_axi0_V_user_V, i1* %src_axi0_V_last_V, i1* %src_axi0_V_id_V, i1* %src_axi0_V_dest_V) {
codeRepl:
  call void (...)* @_ssdm_op_SpecDataflowPipeline(i32 -1, [1 x i8]* @p_str) nounwind, !dbg !113 ; [debug line = 64:1]
  call void (...)* @_ssdm_op_SpecBitsMap(i24* %src_axi0_V_data_V), !map !11924
  call void (...)* @_ssdm_op_SpecBitsMap(i3* %src_axi0_V_keep_V), !map !11928
  call void (...)* @_ssdm_op_SpecBitsMap(i3* %src_axi0_V_strb_V), !map !11932
  call void (...)* @_ssdm_op_SpecBitsMap(i1* %src_axi0_V_user_V), !map !11936
  call void (...)* @_ssdm_op_SpecBitsMap(i1* %src_axi0_V_last_V), !map !11940
  call void (...)* @_ssdm_op_SpecBitsMap(i1* %src_axi0_V_id_V), !map !11944
  call void (...)* @_ssdm_op_SpecBitsMap(i1* %src_axi0_V_dest_V), !map !11948
  call void (...)* @_ssdm_op_SpecTopModule([14 x i8]* @test_pattern1_str) nounwind
  %imag0_0_data_stream_s = alloca i8, align 1     ; [#uses=5 type=i8*]
  %empty = call i32 (...)* @_ssdm_op_SpecChannel([25 x i8]* @imag0_0_OC_data_stre_2, i32 1, [1 x i8]* @p_str, [1 x i8]* @p_str, i32 1, i32 1, i8* %imag0_0_data_stream_s, i8* %imag0_0_data_stream_s) ; [#uses=0 type=i32]
  call void (...)* @_ssdm_op_SpecInterface(i8* %imag0_0_data_stream_s, [8 x i8]* @ap_fifo_str, i32 0, i32 0, [1 x i8]* @p_str, i32 0, i32 0, [1 x i8]* @p_str, [1 x i8]* @p_str, [1 x i8]* @p_str, i32 2, i32 2, i32 16, i32 16, [1 x i8]* @p_str, [1 x i8]* @p_str)
  %imag0_0_data_stream_1 = alloca i8, align 1     ; [#uses=5 type=i8*]
  %empty_4 = call i32 (...)* @_ssdm_op_SpecChannel([25 x i8]* @imag0_0_OC_data_stre_1, i32 1, [1 x i8]* @p_str, [1 x i8]* @p_str, i32 1, i32 1, i8* %imag0_0_data_stream_1, i8* %imag0_0_data_stream_1) ; [#uses=0 type=i32]
  call void (...)* @_ssdm_op_SpecInterface(i8* %imag0_0_data_stream_1, [8 x i8]* @ap_fifo_str, i32 0, i32 0, [1 x i8]* @p_str, i32 0, i32 0, [1 x i8]* @p_str, [1 x i8]* @p_str, [1 x i8]* @p_str, i32 2, i32 2, i32 16, i32 16, [1 x i8]* @p_str, [1 x i8]* @p_str)
  %imag0_0_data_stream_2 = alloca i8, align 1     ; [#uses=5 type=i8*]
  %empty_5 = call i32 (...)* @_ssdm_op_SpecChannel([25 x i8]* @imag0_0_OC_data_stre, i32 1, [1 x i8]* @p_str, [1 x i8]* @p_str, i32 1, i32 1, i8* %imag0_0_data_stream_2, i8* %imag0_0_data_stream_2) ; [#uses=0 type=i32]
  call void (...)* @_ssdm_op_SpecInterface(i8* %imag0_0_data_stream_2, [8 x i8]* @ap_fifo_str, i32 0, i32 0, [1 x i8]* @p_str, i32 0, i32 0, [1 x i8]* @p_str, [1 x i8]* @p_str, [1 x i8]* @p_str, i32 2, i32 2, i32 16, i32 16, [1 x i8]* @p_str, [1 x i8]* @p_str)
  call void (...)* @_ssdm_op_SpecInterface(i24* %src_axi0_V_data_V, i3* %src_axi0_V_keep_V, i3* %src_axi0_V_strb_V, i1* %src_axi0_V_user_V, i1* %src_axi0_V_last_V, i1* %src_axi0_V_id_V, i1* %src_axi0_V_dest_V, [5 x i8]* @p_str2, i32 1, i32 1, [5 x i8]* @p_str3, i32 0, i32 0, [1 x i8]* @p_str, [1 x i8]* @p_str, [1 x i8]* @p_str, i32 0, i32 0, i32 0, i32 0, [1 x i8]* @p_str, [1 x i8]* @p_str) nounwind, !dbg !11952 ; [debug line = 66:1]
  call void (...)* @_ssdm_op_SpecIFCore(i32 0, [1 x i8]* @p_str, [10 x i8]* @p_str4, [1 x i8]* @p_str, i32 -1, [1 x i8]* @p_str, [1 x i8]* @p_str, [1 x i8]* @p_str, [1 x i8]* @p_str, [24 x i8]* @p_str5), !dbg !11953 ; [debug line = 68:1]
  call void @llvm.dbg.value(metadata !{i24* %src_axi0_V_data_V}, i64 0, metadata !11954), !dbg !11967 ; [debug line = 62:32] [debug variable = src_axi0.V.data.V]
  call void @llvm.dbg.value(metadata !{i3* %src_axi0_V_keep_V}, i64 0, metadata !11968), !dbg !11967 ; [debug line = 62:32] [debug variable = src_axi0.V.keep.V]
  call void @llvm.dbg.value(metadata !{i3* %src_axi0_V_strb_V}, i64 0, metadata !11980), !dbg !11967 ; [debug line = 62:32] [debug variable = src_axi0.V.strb.V]
  call void @llvm.dbg.value(metadata !{i1* %src_axi0_V_user_V}, i64 0, metadata !11981), !dbg !11967 ; [debug line = 62:32] [debug variable = src_axi0.V.user.V]
  call void @llvm.dbg.value(metadata !{i1* %src_axi0_V_last_V}, i64 0, metadata !11993), !dbg !11967 ; [debug line = 62:32] [debug variable = src_axi0.V.last.V]
  call void @llvm.dbg.value(metadata !{i1* %src_axi0_V_id_V}, i64 0, metadata !11994), !dbg !11967 ; [debug line = 62:32] [debug variable = src_axi0.V.id.V]
  call void @llvm.dbg.value(metadata !{i1* %src_axi0_V_dest_V}, i64 0, metadata !11995), !dbg !11967 ; [debug line = 62:32] [debug variable = src_axi0.V.dest.V]
  call fastcc void @Loop_loop_height1_pr(i8* %imag0_0_data_stream_s, i8* %imag0_0_data_stream_1, i8* %imag0_0_data_stream_2)
  call fastcc void @Mat2AXIvideo(i8* %imag0_0_data_stream_s, i8* %imag0_0_data_stream_1, i8* %imag0_0_data_stream_2, i24* %src_axi0_V_data_V, i3* %src_axi0_V_keep_V, i3* %src_axi0_V_strb_V, i1* %src_axi0_V_user_V, i1* %src_axi0_V_last_V, i1* %src_axi0_V_id_V, i1* %src_axi0_V_dest_V), !dbg !11996 ; [debug line = 179:13]
  ret void, !dbg !11997                           ; [debug line = 181:1]
}

; [#uses=56]
declare void @llvm.dbg.value(metadata, i64, metadata) nounwind readnone

; [#uses=4]
declare void @llvm.dbg.declare(metadata, metadata) nounwind readnone

; [#uses=1]
define weak void @_ssdm_op_Write.axis.volatile.i24P.i3P.i3P.i1P.i1P.i1P.i1P(i24*, i3*, i3*, i1*, i1*, i1*, i1*, i24, i3, i3, i1, i1, i1, i1) {
entry:
  store i24 %7, i24* %0
  store i3 %8, i3* %1
  store i3 %9, i3* %2
  store i1 %10, i1* %3
  store i1 %11, i1* %4
  store i1 %12, i1* %5
  store i1 %13, i1* %6
  ret void
}

; [#uses=3]
define weak void @_ssdm_op_Write.ap_fifo.volatile.i8P(i8*, i8) {
entry:
  %empty = call i8 @_autotb_FifoWrite_i8(i8* %0, i8 %1) ; [#uses=0 type=i8]
  ret void
}

; [#uses=1]
define weak void @_ssdm_op_SpecTopModule(...) {
entry:
  ret void
}

; [#uses=6]
define weak i32 @_ssdm_op_SpecRegionEnd(...) {
entry:
  ret i32 0
}

; [#uses=6]
define weak i32 @_ssdm_op_SpecRegionBegin(...) {
entry:
  ret i32 0
}

; [#uses=2]
define weak void @_ssdm_op_SpecProtocol(...) nounwind {
entry:
  ret void
}

; [#uses=2]
define weak void @_ssdm_op_SpecPipeline(...) nounwind {
entry:
  ret void
}

; [#uses=4]
define weak i32 @_ssdm_op_SpecLoopTripCount(...) {
entry:
  ret i32 0
}

; [#uses=4]
define weak void @_ssdm_op_SpecLoopName(...) nounwind {
entry:
  ret void
}

; [#uses=11]
define weak void @_ssdm_op_SpecInterface(...) nounwind {
entry:
  ret void
}

; [#uses=1]
define weak void @_ssdm_op_SpecIFCore(...) {
entry:
  ret void
}

; [#uses=1]
define weak void @_ssdm_op_SpecDataflowPipeline(...) nounwind {
entry:
  ret void
}

; [#uses=3]
define weak i32 @_ssdm_op_SpecChannel(...) {
entry:
  ret i32 0
}

; [#uses=7]
define weak void @_ssdm_op_SpecBitsMap(...) {
entry:
  ret void
}

; [#uses=3]
define weak i8 @_ssdm_op_Read.ap_fifo.volatile.i8P(i8*) {
entry:
  %empty = call i8 @_autotb_FifoRead_i8(i8* %0)   ; [#uses=1 type=i8]
  ret i8 %empty
}

; [#uses=1]
define weak i24 @_ssdm_op_BitConcatenate.i24.i8.i8.i8(i8, i8, i8) nounwind readnone {
entry:
  %empty = zext i8 %1 to i16                      ; [#uses=1 type=i16]
  %empty_6 = zext i8 %2 to i16                    ; [#uses=1 type=i16]
  %empty_7 = shl i16 %empty, 8                    ; [#uses=1 type=i16]
  %empty_8 = or i16 %empty_7, %empty_6            ; [#uses=1 type=i16]
  %empty_9 = zext i8 %0 to i24                    ; [#uses=1 type=i24]
  %empty_10 = zext i16 %empty_8 to i24            ; [#uses=1 type=i24]
  %empty_11 = shl i24 %empty_9, 16                ; [#uses=1 type=i24]
  %empty_12 = or i24 %empty_11, %empty_10         ; [#uses=1 type=i24]
  ret i24 %empty_12
}

; [#uses=1]
declare i8 @_autotb_FifoWrite_i8(i8*, i8)

; [#uses=1]
declare i8 @_autotb_FifoRead_i8(i8*)

; [#uses=1]
define internal fastcc void @Mat2AXIvideo(i8* %img_data_stream_0_V, i8* %img_data_stream_1_V, i8* %img_data_stream_2_V, i24* %AXI_video_strm_V_data_V, i3* %AXI_video_strm_V_keep_V, i3* %AXI_video_strm_V_strb_V, i1* %AXI_video_strm_V_user_V, i1* %AXI_video_strm_V_last_V, i1* %AXI_video_strm_V_id_V, i1* %AXI_video_strm_V_dest_V) {
._crit_edge:
  %tmp_user_V = alloca i1                         ; [#uses=3 type=i1*]
  call void @llvm.dbg.declare(metadata !{i1* %tmp_user_V}, metadata !11998) ; [debug variable = tmp.user.V]
  call void (...)* @_ssdm_op_SpecInterface(i8* %img_data_stream_2_V, [8 x i8]* @ap_fifo_str, i32 0, i32 0, [1 x i8]* @p_str, i32 0, i32 0, [1 x i8]* @p_str, [1 x i8]* @p_str, [1 x i8]* @p_str, i32 2, i32 2, i32 16, i32 16, [1 x i8]* @p_str, [1 x i8]* @p_str)
  call void (...)* @_ssdm_op_SpecInterface(i8* %img_data_stream_1_V, [8 x i8]* @ap_fifo_str, i32 0, i32 0, [1 x i8]* @p_str, i32 0, i32 0, [1 x i8]* @p_str, [1 x i8]* @p_str, [1 x i8]* @p_str, i32 2, i32 2, i32 16, i32 16, [1 x i8]* @p_str, [1 x i8]* @p_str)
  call void (...)* @_ssdm_op_SpecInterface(i8* %img_data_stream_0_V, [8 x i8]* @ap_fifo_str, i32 0, i32 0, [1 x i8]* @p_str, i32 0, i32 0, [1 x i8]* @p_str, [1 x i8]* @p_str, [1 x i8]* @p_str, i32 2, i32 2, i32 16, i32 16, [1 x i8]* @p_str, [1 x i8]* @p_str)
  call void (...)* @_ssdm_op_SpecInterface(i24* %AXI_video_strm_V_data_V, i3* %AXI_video_strm_V_keep_V, i3* %AXI_video_strm_V_strb_V, i1* %AXI_video_strm_V_user_V, i1* %AXI_video_strm_V_last_V, i1* %AXI_video_strm_V_id_V, i1* %AXI_video_strm_V_dest_V, [5 x i8]* @p_str2, i32 1, i32 1, [5 x i8]* @p_str3, i32 0, i32 0, [1 x i8]* @p_str, [1 x i8]* @p_str, [1 x i8]* @p_str, i32 0, i32 0, i32 0, i32 0, [1 x i8]* @p_str, [1 x i8]* @p_str) nounwind
  call void @llvm.dbg.value(metadata !{i8* %img_data_stream_0_V}, i64 0, metadata !12002), !dbg !12301 ; [debug line = 111:38] [debug variable = img.data_stream[0].V]
  call void @llvm.dbg.value(metadata !{i8* %img_data_stream_1_V}, i64 0, metadata !12302), !dbg !12301 ; [debug line = 111:38] [debug variable = img.data_stream[1].V]
  call void @llvm.dbg.value(metadata !{i8* %img_data_stream_2_V}, i64 0, metadata !12303), !dbg !12301 ; [debug line = 111:38] [debug variable = img.data_stream[2].V]
  call void @llvm.dbg.value(metadata !{i24* %AXI_video_strm_V_data_V}, i64 0, metadata !12304), !dbg !12306 ; [debug line = 112:45] [debug variable = AXI_video_strm.V.data.V]
  call void @llvm.dbg.value(metadata !{i3* %AXI_video_strm_V_keep_V}, i64 0, metadata !12307), !dbg !12306 ; [debug line = 112:45] [debug variable = AXI_video_strm.V.keep.V]
  call void @llvm.dbg.value(metadata !{i3* %AXI_video_strm_V_strb_V}, i64 0, metadata !12308), !dbg !12306 ; [debug line = 112:45] [debug variable = AXI_video_strm.V.strb.V]
  call void @llvm.dbg.value(metadata !{i1* %AXI_video_strm_V_user_V}, i64 0, metadata !12309), !dbg !12306 ; [debug line = 112:45] [debug variable = AXI_video_strm.V.user.V]
  call void @llvm.dbg.value(metadata !{i1* %AXI_video_strm_V_last_V}, i64 0, metadata !12310), !dbg !12306 ; [debug line = 112:45] [debug variable = AXI_video_strm.V.last.V]
  call void @llvm.dbg.value(metadata !{i1* %AXI_video_strm_V_id_V}, i64 0, metadata !12311), !dbg !12306 ; [debug line = 112:45] [debug variable = AXI_video_strm.V.id.V]
  call void @llvm.dbg.value(metadata !{i1* %AXI_video_strm_V_dest_V}, i64 0, metadata !12312), !dbg !12306 ; [debug line = 112:45] [debug variable = AXI_video_strm.V.dest.V]
  store i1 true, i1* %tmp_user_V
  br label %0, !dbg !12313                        ; [debug line = 125:36]

; <label>:0                                       ; preds = %3, %._crit_edge
  %t_V = phi i10 [ 0, %._crit_edge ], [ %i_V, %3 ] ; [#uses=2 type=i10]
  %exitcond1 = icmp eq i10 %t_V, -64, !dbg !12316 ; [#uses=1 type=i1] [debug line = 125:38]
  %empty = call i32 (...)* @_ssdm_op_SpecLoopTripCount(i64 960, i64 960, i64 960) ; [#uses=0 type=i32]
  %i_V = add i10 %t_V, 1, !dbg !12317             ; [#uses=1 type=i10] [debug line = 1879:145@1909:5@125:48]
  br i1 %exitcond1, label %4, label %1, !dbg !12316 ; [debug line = 125:38]

; <label>:1                                       ; preds = %0
  call void (...)* @_ssdm_op_SpecLoopName([12 x i8]* @p_str13) nounwind, !dbg !12326 ; [debug line = 125:54]
  %tmp = call i32 (...)* @_ssdm_op_SpecRegionBegin([12 x i8]* @p_str13), !dbg !12326 ; [#uses=1 type=i32] [debug line = 125:54]
  br label %2, !dbg !12328                        ; [debug line = 126:38]

; <label>:2                                       ; preds = %"operator>>.exit", %1
  %t_V_1 = phi i11 [ 0, %1 ], [ %j_V, %"operator>>.exit" ] ; [#uses=3 type=i11]
  %exitcond = icmp eq i11 %t_V_1, -768, !dbg !12330 ; [#uses=1 type=i1] [debug line = 126:40]
  %empty_13 = call i32 (...)* @_ssdm_op_SpecLoopTripCount(i64 1280, i64 1280, i64 1280) ; [#uses=0 type=i32]
  %j_V = add i11 %t_V_1, 1, !dbg !12331           ; [#uses=1 type=i11] [debug line = 1879:145@1909:5@126:50]
  br i1 %exitcond, label %3, label %"operator>>.exit", !dbg !12330 ; [debug line = 126:40]

"operator>>.exit":                                ; preds = %2
  %tmp_user_V_load = load i1* %tmp_user_V, !dbg !12334 ; [#uses=1 type=i1] [debug line = 146:9@106:9@146:13]
  call void (...)* @_ssdm_op_SpecLoopName([11 x i8]* @p_str14) nounwind, !dbg !12340 ; [debug line = 126:56]
  %tmp_7 = call i32 (...)* @_ssdm_op_SpecRegionBegin([11 x i8]* @p_str14), !dbg !12340 ; [#uses=1 type=i32] [debug line = 126:56]
  call void (...)* @_ssdm_op_SpecPipeline(i32 1, i32 1, i32 1, i32 0, [1 x i8]* @p_str) nounwind, !dbg !12341 ; [debug line = 128:1]
  %axi_last_V = icmp eq i11 %t_V_1, -769, !dbg !12342 ; [#uses=1 type=i1] [debug line = 2034:5@135:23]
  call void @llvm.dbg.value(metadata !{i1 %axi_last_V}, i64 0, metadata !12346), !dbg !12348 ; [debug line = 281:5@136:17] [debug variable = axi.last.V]
  call void @llvm.dbg.value(metadata !{i8* %img_data_stream_0_V}, i64 0, metadata !12353), !dbg !12358 ; [debug line = 564:10@140:13] [debug variable = Mat<960, 1280, 4096>.data_stream[0].V]
  call void @llvm.dbg.value(metadata !{i8* %img_data_stream_1_V}, i64 0, metadata !12359), !dbg !12358 ; [debug line = 564:10@140:13] [debug variable = Mat<960, 1280, 4096>.data_stream[1].V]
  call void @llvm.dbg.value(metadata !{i8* %img_data_stream_2_V}, i64 0, metadata !12360), !dbg !12358 ; [debug line = 564:10@140:13] [debug variable = Mat<960, 1280, 4096>.data_stream[2].V]
  call void @llvm.dbg.value(metadata !{i8* %img_data_stream_0_V}, i64 0, metadata !12361), !dbg !12366 ; [debug line = 561:99@656:9@140:13] [debug variable = Mat<960, 1280, 4096>.data_stream[0].V]
  call void @llvm.dbg.value(metadata !{i8* %img_data_stream_1_V}, i64 0, metadata !12367), !dbg !12366 ; [debug line = 561:99@656:9@140:13] [debug variable = Mat<960, 1280, 4096>.data_stream[1].V]
  call void @llvm.dbg.value(metadata !{i8* %img_data_stream_2_V}, i64 0, metadata !12368), !dbg !12366 ; [debug line = 561:99@656:9@140:13] [debug variable = Mat<960, 1280, 4096>.data_stream[2].V]
  %tmp_8 = call i32 (...)* @_ssdm_op_SpecRegionBegin([12 x i8]* @p_str18), !dbg !12369 ; [#uses=1 type=i32] [debug line = 617:6@656:9@140:13]
  call void (...)* @_ssdm_op_SpecProtocol(i32 0, [1 x i8]* @p_str) nounwind, !dbg !12372 ; [debug line = 621:9@656:9@140:13]
  %tmp_4 = call i8 @_ssdm_op_Read.ap_fifo.volatile.i8P(i8* %img_data_stream_0_V), !dbg !12373 ; [#uses=1 type=i8] [debug line = 125:9@102:9@624:39@656:9@140:13]
  call void @llvm.dbg.value(metadata !{i8 %tmp_4}, i64 0, metadata !12382), !dbg !12373 ; [debug line = 125:9@102:9@624:39@656:9@140:13] [debug variable = tmp]
  call void @llvm.dbg.value(metadata !{i8 %tmp_4}, i64 0, metadata !12383), !dbg !12387 ; [debug line = 126:9@102:9@624:39@656:9@140:13] [debug variable = scl.val[0]]
  %tmp_5 = call i8 @_ssdm_op_Read.ap_fifo.volatile.i8P(i8* %img_data_stream_1_V), !dbg !12373 ; [#uses=1 type=i8] [debug line = 125:9@102:9@624:39@656:9@140:13]
  call void @llvm.dbg.value(metadata !{i8 %tmp_5}, i64 0, metadata !12382), !dbg !12373 ; [debug line = 125:9@102:9@624:39@656:9@140:13] [debug variable = tmp]
  call void @llvm.dbg.value(metadata !{i8 %tmp_5}, i64 0, metadata !12388), !dbg !12387 ; [debug line = 126:9@102:9@624:39@656:9@140:13] [debug variable = scl.val[1]]
  %tmp_3 = call i8 @_ssdm_op_Read.ap_fifo.volatile.i8P(i8* %img_data_stream_2_V), !dbg !12373 ; [#uses=1 type=i8] [debug line = 125:9@102:9@624:39@656:9@140:13]
  call void @llvm.dbg.value(metadata !{i8 %tmp_3}, i64 0, metadata !12382), !dbg !12373 ; [debug line = 125:9@102:9@624:39@656:9@140:13] [debug variable = tmp]
  %empty_14 = call i32 (...)* @_ssdm_op_SpecRegionEnd([12 x i8]* @p_str18, i32 %tmp_8), !dbg !12389 ; [#uses=0 type=i32] [debug line = 626:5@656:9@140:13]
  %tmp_data_V = call i24 @_ssdm_op_BitConcatenate.i24.i8.i8.i8(i8 %tmp_3, i8 %tmp_5, i8 %tmp_4), !dbg !12390 ; [#uses=1 type=i24] [debug line = 951:115@78:5@100:5@143:62]
  call void @llvm.dbg.value(metadata !{i24* %AXI_video_strm_V_data_V}, i64 0, metadata !12410), !dbg !12414 ; [debug line = 105:48@146:13] [debug variable = stream<ap_axiu<24, 1, 1, 1> >.V.data.V]
  call void @llvm.dbg.value(metadata !{i3* %AXI_video_strm_V_keep_V}, i64 0, metadata !12415), !dbg !12414 ; [debug line = 105:48@146:13] [debug variable = stream<ap_axiu<24, 1, 1, 1> >.V.keep.V]
  call void @llvm.dbg.value(metadata !{i3* %AXI_video_strm_V_strb_V}, i64 0, metadata !12417), !dbg !12414 ; [debug line = 105:48@146:13] [debug variable = stream<ap_axiu<24, 1, 1, 1> >.V.strb.V]
  call void @llvm.dbg.value(metadata !{i1* %AXI_video_strm_V_user_V}, i64 0, metadata !12418), !dbg !12414 ; [debug line = 105:48@146:13] [debug variable = stream<ap_axiu<24, 1, 1, 1> >.V.user.V]
  call void @llvm.dbg.value(metadata !{i1* %AXI_video_strm_V_last_V}, i64 0, metadata !12420), !dbg !12414 ; [debug line = 105:48@146:13] [debug variable = stream<ap_axiu<24, 1, 1, 1> >.V.last.V]
  call void @llvm.dbg.value(metadata !{i1* %AXI_video_strm_V_id_V}, i64 0, metadata !12421), !dbg !12414 ; [debug line = 105:48@146:13] [debug variable = stream<ap_axiu<24, 1, 1, 1> >.V.id.V]
  call void @llvm.dbg.value(metadata !{i1* %AXI_video_strm_V_dest_V}, i64 0, metadata !12422), !dbg !12414 ; [debug line = 105:48@146:13] [debug variable = stream<ap_axiu<24, 1, 1, 1> >.V.dest.V]
  call void @llvm.dbg.value(metadata !{i24* %AXI_video_strm_V_data_V}, i64 0, metadata !12423), !dbg !12425 ; [debug line = 144:48@106:9@146:13] [debug variable = stream<ap_axiu<24, 1, 1, 1> >.V.data.V]
  call void @llvm.dbg.value(metadata !{i3* %AXI_video_strm_V_keep_V}, i64 0, metadata !12426), !dbg !12425 ; [debug line = 144:48@106:9@146:13] [debug variable = stream<ap_axiu<24, 1, 1, 1> >.V.keep.V]
  call void @llvm.dbg.value(metadata !{i3* %AXI_video_strm_V_strb_V}, i64 0, metadata !12427), !dbg !12425 ; [debug line = 144:48@106:9@146:13] [debug variable = stream<ap_axiu<24, 1, 1, 1> >.V.strb.V]
  call void @llvm.dbg.value(metadata !{i1* %AXI_video_strm_V_user_V}, i64 0, metadata !12428), !dbg !12425 ; [debug line = 144:48@106:9@146:13] [debug variable = stream<ap_axiu<24, 1, 1, 1> >.V.user.V]
  call void @llvm.dbg.value(metadata !{i1* %AXI_video_strm_V_last_V}, i64 0, metadata !12429), !dbg !12425 ; [debug line = 144:48@106:9@146:13] [debug variable = stream<ap_axiu<24, 1, 1, 1> >.V.last.V]
  call void @llvm.dbg.value(metadata !{i1* %AXI_video_strm_V_id_V}, i64 0, metadata !12430), !dbg !12425 ; [debug line = 144:48@106:9@146:13] [debug variable = stream<ap_axiu<24, 1, 1, 1> >.V.id.V]
  call void @llvm.dbg.value(metadata !{i1* %AXI_video_strm_V_dest_V}, i64 0, metadata !12431), !dbg !12425 ; [debug line = 144:48@106:9@146:13] [debug variable = stream<ap_axiu<24, 1, 1, 1> >.V.dest.V]
  call void @llvm.dbg.value(metadata !{i24 %tmp_data_V}, i64 0, metadata !12432), !dbg !12433 ; [debug line = 145:31@106:9@146:13] [debug variable = tmp.data.V]
  call void @llvm.dbg.value(metadata !{i1 %axi_last_V}, i64 0, metadata !12434), !dbg !12433 ; [debug line = 145:31@106:9@146:13] [debug variable = tmp.last.V]
  call void @_ssdm_op_Write.axis.volatile.i24P.i3P.i3P.i1P.i1P.i1P.i1P(i24* %AXI_video_strm_V_data_V, i3* %AXI_video_strm_V_keep_V, i3* %AXI_video_strm_V_strb_V, i1* %AXI_video_strm_V_user_V, i1* %AXI_video_strm_V_last_V, i1* %AXI_video_strm_V_id_V, i1* %AXI_video_strm_V_dest_V, i24 %tmp_data_V, i3 -1, i3 undef, i1 %tmp_user_V_load, i1 %axi_last_V, i1 undef, i1 undef), !dbg !12334 ; [debug line = 146:9@106:9@146:13]
  %empty_15 = call i32 (...)* @_ssdm_op_SpecRegionEnd([11 x i8]* @p_str14, i32 %tmp_7), !dbg !12435 ; [#uses=0 type=i32] [debug line = 147:9]
  call void @llvm.dbg.value(metadata !{i11 %t_V_1}, i64 0, metadata !12436), !dbg !12442 ; [debug line = 1908:26@126:50] [debug variable = t.V]
  call void @llvm.dbg.value(metadata !{i11 %j_V}, i64 0, metadata !12443), !dbg !12331 ; [debug line = 1879:145@1909:5@126:50] [debug variable = j.V]
  store i1 false, i1* %tmp_user_V
  br label %2, !dbg !12333                        ; [debug line = 126:50]

; <label>:3                                       ; preds = %2
  %empty_16 = call i32 (...)* @_ssdm_op_SpecRegionEnd([12 x i8]* @p_str13, i32 %tmp), !dbg !12447 ; [#uses=0 type=i32] [debug line = 148:5]
  call void @llvm.dbg.value(metadata !{i10 %t_V}, i64 0, metadata !12436), !dbg !12448 ; [debug line = 1908:26@125:48] [debug variable = t.V]
  call void @llvm.dbg.value(metadata !{i10 %i_V}, i64 0, metadata !12449), !dbg !12317 ; [debug line = 1879:145@1909:5@125:48] [debug variable = i.V]
  br label %0, !dbg !12325                        ; [debug line = 125:48]

; <label>:4                                       ; preds = %0
  ret void
}

; [#uses=1]
define internal fastcc void @Loop_loop_height1_pr(i8* %imag0_0_data_stream_0_V, i8* %imag0_0_data_stream_1_V, i8* %imag0_0_data_stream_2_V) {
newFuncRoot:
  call void (...)* @_ssdm_op_SpecInterface(i8* %imag0_0_data_stream_2_V, [8 x i8]* @ap_fifo_str, i32 0, i32 0, [1 x i8]* @p_str, i32 0, i32 0, [1 x i8]* @p_str, [1 x i8]* @p_str, [1 x i8]* @p_str, i32 2, i32 2, i32 16, i32 16, [1 x i8]* @p_str, [1 x i8]* @p_str)
  call void (...)* @_ssdm_op_SpecInterface(i8* %imag0_0_data_stream_1_V, [8 x i8]* @ap_fifo_str, i32 0, i32 0, [1 x i8]* @p_str, i32 0, i32 0, [1 x i8]* @p_str, [1 x i8]* @p_str, [1 x i8]* @p_str, i32 2, i32 2, i32 16, i32 16, [1 x i8]* @p_str, [1 x i8]* @p_str)
  call void (...)* @_ssdm_op_SpecInterface(i8* %imag0_0_data_stream_0_V, [8 x i8]* @ap_fifo_str, i32 0, i32 0, [1 x i8]* @p_str, i32 0, i32 0, [1 x i8]* @p_str, [1 x i8]* @p_str, [1 x i8]* @p_str, i32 2, i32 2, i32 16, i32 16, [1 x i8]* @p_str, [1 x i8]* @p_str)
  call void @llvm.dbg.declare(metadata !{i8* %imag0_0_data_stream_0_V}, metadata !12451), !dbg !12454 ; [debug line = 73:23] [debug variable = imag0_0.data_stream[0].V]
  call void @llvm.dbg.declare(metadata !{i8* %imag0_0_data_stream_1_V}, metadata !12455), !dbg !12454 ; [debug line = 73:23] [debug variable = imag0_0.data_stream[1].V]
  call void @llvm.dbg.declare(metadata !{i8* %imag0_0_data_stream_2_V}, metadata !12456), !dbg !12454 ; [debug line = 73:23] [debug variable = imag0_0.data_stream[2].V]
  br label %0

test_pattern1_.exit.exitStub:                     ; preds = %0
  ret void

; <label>:0                                       ; preds = %1, %newFuncRoot
  %t_V = phi i10 [ 0, %newFuncRoot ], [ %i_V, %1 ] ; [#uses=3 type=i10]
  %tmp_i = icmp eq i10 %t_V, -64, !dbg !12457     ; [#uses=1 type=i1] [debug line = 2042:5@3559:0@81:49]
  %empty = call i32 (...)* @_ssdm_op_SpecLoopTripCount(i64 960, i64 960, i64 960) ; [#uses=0 type=i32]
  %i_V = add i10 %t_V, 1, !dbg !12718             ; [#uses=1 type=i10] [debug line = 1879:145@1909:5@81:58]
  br i1 %tmp_i, label %test_pattern1_.exit.exitStub, label %3, !dbg !12716 ; [debug line = 81:49]

; <label>:1                                       ; preds = %2
  %empty_17 = call i32 (...)* @_ssdm_op_SpecRegionEnd([13 x i8]* @p_str6, i32 %tmp), !dbg !12721 ; [#uses=0 type=i32] [debug line = 174:12]
  call void @llvm.dbg.value(metadata !{i10 %t_V}, i64 0, metadata !12436), !dbg !12723 ; [debug line = 1908:26@81:58] [debug variable = t.V]
  call void @llvm.dbg.value(metadata !{i10 %i_V}, i64 0, metadata !12724), !dbg !12718 ; [debug line = 1879:145@1909:5@81:58] [debug variable = i.V]
  br label %0, !dbg !12720                        ; [debug line = 81:58]

; <label>:2                                       ; preds = %"operator<<.exit.i", %3
  %t_V_1 = phi i11 [ 0, %3 ], [ %j_V, %"operator<<.exit.i" ] ; [#uses=15 type=i11]
  %tmp_2_i = icmp eq i11 %t_V_1, -768, !dbg !12726 ; [#uses=1 type=i1] [debug line = 2042:5@3559:0@82:51]
  %empty_18 = call i32 (...)* @_ssdm_op_SpecLoopTripCount(i64 1280, i64 1280, i64 1280) ; [#uses=0 type=i32]
  %j_V = add i11 %t_V_1, 1, !dbg !12730           ; [#uses=1 type=i11] [debug line = 1879:145@1909:5@82:61]
  br i1 %tmp_2_i, label %1, label %5, !dbg !12728 ; [debug line = 82:51]

; <label>:3                                       ; preds = %0
  call void (...)* @_ssdm_op_SpecLoopName([13 x i8]* @p_str6) nounwind, !dbg !12733 ; [debug line = 81:64]
  %tmp = call i32 (...)* @_ssdm_op_SpecRegionBegin([13 x i8]* @p_str6), !dbg !12733 ; [#uses=1 type=i32] [debug line = 81:64]
  %tmp_1_i = icmp ult i10 %t_V, 480, !dbg !12734  ; [#uses=1 type=i1] [debug line = 2042:5@3559:0@85:6]
  br label %2, !dbg !12738                        ; [debug line = 82:49]

"operator<<.exit.i":                              ; preds = %16, %"operator=.exit.i", %15, %14, %13, %12, %11, %10, %"operator=.exit230.i", %9, %8, %7, %6, %4
  %tmp_4 = phi i8 [ -1, %4 ], [ 0, %6 ], [ 0, %7 ], [ -1, %8 ], [ -1, %9 ], [ %storemerge1, %"operator=.exit230.i" ], [ 0, %10 ], [ -1, %11 ], [ 0, %12 ], [ -1, %13 ], [ -1, %14 ], [ 0, %15 ], [ -128, %"operator=.exit.i" ], [ 64, %16 ] ; [#uses=1 type=i8]
  %tmp_5 = phi i8 [ 0, %4 ], [ -1, %6 ], [ 0, %7 ], [ -128, %8 ], [ -1, %9 ], [ %storemerge2_cast, %"operator=.exit230.i" ], [ -1, %10 ], [ -1, %11 ], [ -1, %12 ], [ 0, %13 ], [ -128, %14 ], [ 0, %15 ], [ %storemerge3, %"operator=.exit.i" ], [ -1, %16 ] ; [#uses=1 type=i8]
  %tmp_6 = phi i8 [ 0, %4 ], [ 0, %6 ], [ -1, %7 ], [ 0, %8 ], [ -1, %9 ], [ -1, %"operator=.exit230.i" ], [ -128, %10 ], [ 0, %11 ], [ -1, %12 ], [ -1, %13 ], [ 64, %14 ], [ 0, %15 ], [ %storemerge, %"operator=.exit.i" ], [ -128, %16 ] ; [#uses=1 type=i8]
  %tmp_2 = call i32 (...)* @_ssdm_op_SpecRegionBegin([12 x i8]* @p_str20), !dbg !12739 ; [#uses=1 type=i32] [debug line = 641:6@662:5@171:16]
  call void (...)* @_ssdm_op_SpecProtocol(i32 0, [1 x i8]* @p_str) nounwind, !dbg !12747 ; [debug line = 645:1@662:5@171:16]
  call void @llvm.dbg.value(metadata !{i8 %tmp_4}, i64 0, metadata !12748), !dbg !12751 ; [debug line = 145:31@106:9@648:37@662:5@171:16] [debug variable = tmp]
  call void @_ssdm_op_Write.ap_fifo.volatile.i8P(i8* %imag0_0_data_stream_0_V, i8 %tmp_4), !dbg !12758 ; [debug line = 146:9@106:9@648:37@662:5@171:16]
  call void @llvm.dbg.value(metadata !{i8 %tmp_5}, i64 0, metadata !12748), !dbg !12751 ; [debug line = 145:31@106:9@648:37@662:5@171:16] [debug variable = tmp]
  call void @_ssdm_op_Write.ap_fifo.volatile.i8P(i8* %imag0_0_data_stream_1_V, i8 %tmp_5), !dbg !12758 ; [debug line = 146:9@106:9@648:37@662:5@171:16]
  call void @llvm.dbg.value(metadata !{i8 %tmp_6}, i64 0, metadata !12748), !dbg !12751 ; [debug line = 145:31@106:9@648:37@662:5@171:16] [debug variable = tmp]
  call void @_ssdm_op_Write.ap_fifo.volatile.i8P(i8* %imag0_0_data_stream_2_V, i8 %tmp_6), !dbg !12758 ; [debug line = 146:9@106:9@648:37@662:5@171:16]
  %empty_19 = call i32 (...)* @_ssdm_op_SpecRegionEnd([12 x i8]* @p_str20, i32 %tmp_2), !dbg !12759 ; [#uses=0 type=i32] [debug line = 650:5@662:5@171:16]
  %empty_20 = call i32 (...)* @_ssdm_op_SpecRegionEnd([12 x i8]* @p_str7, i32 %tmp_1), !dbg !12760 ; [#uses=0 type=i32] [debug line = 172:15]
  call void @llvm.dbg.value(metadata !{i11 %t_V_1}, i64 0, metadata !12436), !dbg !12761 ; [debug line = 1908:26@82:61] [debug variable = t.V]
  call void @llvm.dbg.value(metadata !{i11 %j_V}, i64 0, metadata !12762), !dbg !12730 ; [debug line = 1879:145@1909:5@82:61] [debug variable = j.V]
  br label %2, !dbg !12732                        ; [debug line = 82:61]

; <label>:4                                       ; preds = %5
  br i1 %tmp_4_i, label %"operator<<.exit.i", label %6, !dbg !12764 ; [debug line = 87:20]

; <label>:5                                       ; preds = %2
  call void (...)* @_ssdm_op_SpecLoopName([12 x i8]* @p_str7) nounwind, !dbg !12766 ; [debug line = 82:67]
  %tmp_1 = call i32 (...)* @_ssdm_op_SpecRegionBegin([12 x i8]* @p_str7), !dbg !12766 ; [#uses=1 type=i32] [debug line = 82:67]
  call void (...)* @_ssdm_op_SpecPipeline(i32 1, i32 1, i32 1, i32 0, [1 x i8]* @p_str) nounwind, !dbg !12767 ; [debug line = 84:1]
  %tmp_4_i = icmp ult i11 %t_V_1, 160, !dbg !12768 ; [#uses=2 type=i1] [debug line = 2042:5@3559:0@87:20]
  br i1 %tmp_1_i, label %4, label %11, !dbg !12736 ; [debug line = 85:6]

; <label>:6                                       ; preds = %4
  %tmp_6_i = icmp ult i11 %t_V_1, 320, !dbg !12770 ; [#uses=1 type=i1] [debug line = 2042:5@3559:0@93:25]
  br i1 %tmp_6_i, label %"operator<<.exit.i", label %7, !dbg !12772 ; [debug line = 93:25]

; <label>:7                                       ; preds = %6
  %tmp_8_i = icmp ult i11 %t_V_1, 480, !dbg !12773 ; [#uses=1 type=i1] [debug line = 2042:5@3559:0@99:25]
  br i1 %tmp_8_i, label %"operator<<.exit.i", label %9, !dbg !12775 ; [debug line = 99:25]

; <label>:8                                       ; preds = %9
  %tmp_10_i = icmp ult i11 %t_V_1, 800, !dbg !12776 ; [#uses=1 type=i1] [debug line = 2042:5@3559:0@107:25]
  br i1 %tmp_10_i, label %"operator<<.exit.i", label %10, !dbg !12778 ; [debug line = 107:25]

; <label>:9                                       ; preds = %7
  %tmp_i_21 = icmp ult i11 %t_V_1, 640, !dbg !12779 ; [#uses=1 type=i1] [debug line = 2042:5@3559:0@105:25]
  br i1 %tmp_i_21, label %"operator<<.exit.i", label %8, !dbg !12781 ; [debug line = 105:25]

"operator=.exit230.i":                            ; preds = %10
  %tmp_15_i = icmp ult i11 %t_V_1, -928, !dbg !12782 ; [#uses=2 type=i1] [debug line = 2042:5@3559:0@119:41]
  %storemerge1 = select i1 %tmp_15_i, i8 -128, i8 -1, !dbg !12784 ; [#uses=1 type=i8] [debug line = 119:41]
  %not_tmp_15_i = xor i1 %tmp_15_i, true, !dbg !12784 ; [#uses=1 type=i1] [debug line = 119:41]
  %storemerge2_cast = select i1 %not_tmp_15_i, i8 -1, i8 0, !dbg !12784 ; [#uses=1 type=i8] [debug line = 119:41]
  br label %"operator<<.exit.i"

; <label>:10                                      ; preds = %8
  %tmp_12_i = icmp ult i11 %t_V_1, 960, !dbg !12785 ; [#uses=1 type=i1] [debug line = 2042:5@3559:0@113:41]
  br i1 %tmp_12_i, label %"operator<<.exit.i", label %"operator=.exit230.i", !dbg !12787 ; [debug line = 113:41]

; <label>:11                                      ; preds = %5
  br i1 %tmp_4_i, label %"operator<<.exit.i", label %12, !dbg !12788 ; [debug line = 130:20]

; <label>:12                                      ; preds = %11
  %tmp_7_i = icmp ult i11 %t_V_1, 320, !dbg !12790 ; [#uses=1 type=i1] [debug line = 2042:5@3559:0@136:41]
  br i1 %tmp_7_i, label %"operator<<.exit.i", label %13, !dbg !12792 ; [debug line = 136:41]

; <label>:13                                      ; preds = %12
  %tmp_9_i = icmp ult i11 %t_V_1, 480, !dbg !12793 ; [#uses=1 type=i1] [debug line = 2042:5@3559:0@142:41]
  br i1 %tmp_9_i, label %"operator<<.exit.i", label %15, !dbg !12795 ; [debug line = 142:41]

; <label>:14                                      ; preds = %15
  %tmp_11_i = icmp ult i11 %t_V_1, 800, !dbg !12796 ; [#uses=1 type=i1] [debug line = 2042:5@3559:0@150:55]
  br i1 %tmp_11_i, label %"operator<<.exit.i", label %16, !dbg !12798 ; [debug line = 150:55]

; <label>:15                                      ; preds = %13
  %tmp_3_i = icmp ult i11 %t_V_1, 640, !dbg !12799 ; [#uses=1 type=i1] [debug line = 2042:5@3559:0@148:39]
  br i1 %tmp_3_i, label %"operator<<.exit.i", label %14, !dbg !12801 ; [debug line = 148:39]

"operator=.exit.i":                               ; preds = %16
  %tmp_17_i = icmp ult i11 %t_V_1, -928, !dbg !12802 ; [#uses=2 type=i1] [debug line = 2042:5@3559:0@162:71]
  %storemerge3 = select i1 %tmp_17_i, i8 64, i8 -128, !dbg !12804 ; [#uses=1 type=i8] [debug line = 162:71]
  %storemerge = select i1 %tmp_17_i, i8 -1, i8 -128, !dbg !12804 ; [#uses=1 type=i8] [debug line = 162:71]
  br label %"operator<<.exit.i"

; <label>:16                                      ; preds = %14
  %tmp_13_i = icmp ult i11 %t_V_1, 960, !dbg !12805 ; [#uses=1 type=i1] [debug line = 2042:5@3559:0@156:71]
  br i1 %tmp_13_i, label %"operator<<.exit.i", label %"operator=.exit.i", !dbg !12807 ; [debug line = 156:71]
}

!opencl.kernels = !{!0, !0, !7, !13, !16, !18, !18, !21, !21, !27, !30, !32, !32, !21, !34, !21, !21, !36, !32, !32, !21, !39, !21, !21, !21, !42, !42, !44, !44, !46, !52, !55, !57, !57, !21, !59, !62, !62, !68, !69, !18, !18, !21, !21, !18, !18, !21, !70, !72, !21, !75, !78, !80, !21, !21, !82, !84, !21, !21, !21, !42, !42, !86, !86, !88, !18, !18, !21, !90, !92, !93, !69, !21, !21, !21, !21, !21, !21, !21, !21, !94, !94, !96, !98, !99, !30, !34, !93, !69, !18, !18, !21, !21, !21, !21, !102, !102, !102, !104, !21, !21, !21, !21, !21, !21, !21, !21, !21, !21}
!hls.encrypted.func = !{}
!llvm.map.gv = !{!106}

!0 = metadata !{null, metadata !1, metadata !2, metadata !3, metadata !4, metadata !5, metadata !6}
!1 = metadata !{metadata !"kernel_arg_addr_space", i32 0}
!2 = metadata !{metadata !"kernel_arg_access_qual", metadata !"none"}
!3 = metadata !{metadata !"kernel_arg_type", metadata !"AXI_STREAM &"}
!4 = metadata !{metadata !"kernel_arg_type_qual", metadata !""}
!5 = metadata !{metadata !"kernel_arg_name", metadata !"src_axi0"}
!6 = metadata !{metadata !"reqd_work_group_size", i32 1, i32 1, i32 1}
!7 = metadata !{null, metadata !8, metadata !9, metadata !10, metadata !11, metadata !12, metadata !6}
!8 = metadata !{metadata !"kernel_arg_addr_space", i32 0, i32 0}
!9 = metadata !{metadata !"kernel_arg_access_qual", metadata !"none", metadata !"none"}
!10 = metadata !{metadata !"kernel_arg_type", metadata !"Mat<960, 1280, 4096> &", metadata !"stream<ap_axiu<24, 1, 1, 1> > &"}
!11 = metadata !{metadata !"kernel_arg_type_qual", metadata !"", metadata !""}
!12 = metadata !{metadata !"kernel_arg_name", metadata !"img", metadata !"AXI_video_strm"}
!13 = metadata !{null, metadata !1, metadata !2, metadata !14, metadata !4, metadata !15, metadata !6}
!14 = metadata !{metadata !"kernel_arg_type", metadata !"const struct ap_axiu<24, 1, 1, 1> &"}
!15 = metadata !{metadata !"kernel_arg_name", metadata !"wdata"}
!16 = metadata !{null, metadata !1, metadata !2, metadata !14, metadata !4, metadata !17, metadata !6}
!17 = metadata !{metadata !"kernel_arg_name", metadata !"din"}
!18 = metadata !{null, metadata !1, metadata !2, metadata !19, metadata !4, metadata !20, metadata !6}
!19 = metadata !{metadata !"kernel_arg_type", metadata !"int"}
!20 = metadata !{metadata !"kernel_arg_name", metadata !"val"}
!21 = metadata !{null, metadata !22, metadata !23, metadata !24, metadata !25, metadata !26, metadata !6}
!22 = metadata !{metadata !"kernel_arg_addr_space"}
!23 = metadata !{metadata !"kernel_arg_access_qual"}
!24 = metadata !{metadata !"kernel_arg_type"}
!25 = metadata !{metadata !"kernel_arg_type_qual"}
!26 = metadata !{metadata !"kernel_arg_name"}
!27 = metadata !{null, metadata !1, metadata !2, metadata !28, metadata !4, metadata !29, metadata !6}
!28 = metadata !{metadata !"kernel_arg_type", metadata !"const ap_uint<3> &"}
!29 = metadata !{metadata !"kernel_arg_name", metadata !"op2"}
!30 = metadata !{null, metadata !1, metadata !2, metadata !19, metadata !4, metadata !31, metadata !6}
!31 = metadata !{metadata !"kernel_arg_name", metadata !""}
!32 = metadata !{null, metadata !1, metadata !2, metadata !19, metadata !4, metadata !33, metadata !6}
!33 = metadata !{metadata !"kernel_arg_name", metadata !"op"}
!34 = metadata !{null, metadata !1, metadata !2, metadata !35, metadata !4, metadata !29, metadata !6}
!35 = metadata !{metadata !"kernel_arg_type", metadata !"const ap_int_base<1, false> &"}
!36 = metadata !{null, metadata !8, metadata !9, metadata !37, metadata !11, metadata !38, metadata !6}
!37 = metadata !{metadata !"kernel_arg_type", metadata !"const ap_int_base<5, false> &", metadata !"int"}
!38 = metadata !{metadata !"kernel_arg_name", metadata !"op", metadata !"i_op"}
!39 = metadata !{null, metadata !8, metadata !9, metadata !40, metadata !11, metadata !41, metadata !6}
!40 = metadata !{metadata !"kernel_arg_type", metadata !"const ap_int_base<5, false> &", metadata !"const ap_int_base<32, true> &"}
!41 = metadata !{metadata !"kernel_arg_name", metadata !"op", metadata !"op2"}
!42 = metadata !{null, metadata !1, metadata !2, metadata !43, metadata !4, metadata !33, metadata !6}
!43 = metadata !{metadata !"kernel_arg_type", metadata !"const ap_int_base<32, true> &"}
!44 = metadata !{null, metadata !1, metadata !2, metadata !45, metadata !4, metadata !33, metadata !6}
!45 = metadata !{metadata !"kernel_arg_type", metadata !"const ap_int_base<5, false> &"}
!46 = metadata !{null, metadata !47, metadata !48, metadata !49, metadata !50, metadata !51, metadata !6}
!47 = metadata !{metadata !"kernel_arg_addr_space", i32 0, i32 0, i32 0, i32 0}
!48 = metadata !{metadata !"kernel_arg_access_qual", metadata !"none", metadata !"none", metadata !"none", metadata !"none"}
!49 = metadata !{metadata !"kernel_arg_type", metadata !"ap_axiu<24, 1, 1, 1> &", metadata !"int", metadata !"int", metadata !"uchar"}
!50 = metadata !{metadata !"kernel_arg_type_qual", metadata !"", metadata !"", metadata !"", metadata !""}
!51 = metadata !{metadata !"kernel_arg_name", metadata !"axi", metadata !"start", metadata !"w", metadata !"val"}
!52 = metadata !{null, metadata !47, metadata !48, metadata !53, metadata !50, metadata !54, metadata !6}
!53 = metadata !{metadata !"kernel_arg_type", metadata !"ap_uint<24> &", metadata !"int", metadata !"int", metadata !"uchar"}
!54 = metadata !{metadata !"kernel_arg_name", metadata !"pix", metadata !"start", metadata !"w", metadata !"val"}
!55 = metadata !{null, metadata !1, metadata !2, metadata !56, metadata !4, metadata !20, metadata !6}
!56 = metadata !{metadata !"kernel_arg_type", metadata !"ulong long"}
!57 = metadata !{null, metadata !1, metadata !2, metadata !58, metadata !4, metadata !33, metadata !6}
!58 = metadata !{metadata !"kernel_arg_type", metadata !"ap_ulong"}
!59 = metadata !{null, metadata !8, metadata !9, metadata !60, metadata !11, metadata !61, metadata !6}
!60 = metadata !{metadata !"kernel_arg_type", metadata !"int", metadata !"int"}
!61 = metadata !{metadata !"kernel_arg_name", metadata !"Hi", metadata !"Lo"}
!62 = metadata !{null, metadata !63, metadata !64, metadata !65, metadata !66, metadata !67, metadata !6}
!63 = metadata !{metadata !"kernel_arg_addr_space", i32 1, i32 0, i32 0}
!64 = metadata !{metadata !"kernel_arg_access_qual", metadata !"none", metadata !"none", metadata !"none"}
!65 = metadata !{metadata !"kernel_arg_type", metadata !"ap_int_base<24, false>*", metadata !"int", metadata !"int"}
!66 = metadata !{metadata !"kernel_arg_type_qual", metadata !"", metadata !"", metadata !""}
!67 = metadata !{metadata !"kernel_arg_name", metadata !"bv", metadata !"h", metadata !"l"}
!68 = metadata !{null, metadata !8, metadata !9, metadata !37, metadata !11, metadata !41, metadata !6}
!69 = metadata !{null, metadata !1, metadata !2, metadata !43, metadata !4, metadata !29, metadata !6}
!70 = metadata !{null, metadata !1, metadata !2, metadata !71, metadata !4, metadata !29, metadata !6}
!71 = metadata !{metadata !"kernel_arg_type", metadata !"const ap_uint<24> &"}
!72 = metadata !{null, metadata !1, metadata !2, metadata !73, metadata !4, metadata !74, metadata !6}
!73 = metadata !{metadata !"kernel_arg_type", metadata !"Scalar<((((4096) & ((512 - 1) << 11)) >> 11) + 1), typename Type<((4096) & ((1 << 11) - 1))>::name> &"}
!74 = metadata !{metadata !"kernel_arg_name", metadata !"s"}
!75 = metadata !{null, metadata !1, metadata !2, metadata !76, metadata !4, metadata !77, metadata !6}
!76 = metadata !{metadata !"kernel_arg_type", metadata !"uchar &"}
!77 = metadata !{metadata !"kernel_arg_name", metadata !"rdata"}
!78 = metadata !{null, metadata !1, metadata !2, metadata !76, metadata !4, metadata !79, metadata !6}
!79 = metadata !{metadata !"kernel_arg_name", metadata !"dout"}
!80 = metadata !{null, metadata !1, metadata !2, metadata !81, metadata !4, metadata !29, metadata !6}
!81 = metadata !{metadata !"kernel_arg_type", metadata !"const ap_uint<5> &"}
!82 = metadata !{null, metadata !8, metadata !9, metadata !83, metadata !11, metadata !38, metadata !6}
!83 = metadata !{metadata !"kernel_arg_type", metadata !"const ap_int_base<32, false> &", metadata !"int"}
!84 = metadata !{null, metadata !8, metadata !9, metadata !85, metadata !11, metadata !41, metadata !6}
!85 = metadata !{metadata !"kernel_arg_type", metadata !"const ap_int_base<32, false> &", metadata !"const ap_int_base<32, true> &"}
!86 = metadata !{null, metadata !1, metadata !2, metadata !87, metadata !4, metadata !33, metadata !6}
!87 = metadata !{metadata !"kernel_arg_type", metadata !"const ap_int_base<32, false> &"}
!88 = metadata !{null, metadata !1, metadata !2, metadata !89, metadata !4, metadata !29, metadata !6}
!89 = metadata !{metadata !"kernel_arg_type", metadata !"const ap_int_base<34, true> &"}
!90 = metadata !{null, metadata !1, metadata !2, metadata !91, metadata !4, metadata !29, metadata !6}
!91 = metadata !{metadata !"kernel_arg_type", metadata !"const ap_uint<1> &"}
!92 = metadata !{null, metadata !1, metadata !2, metadata !87, metadata !4, metadata !29, metadata !6}
!93 = metadata !{null, metadata !8, metadata !9, metadata !83, metadata !11, metadata !41, metadata !6}
!94 = metadata !{null, metadata !1, metadata !2, metadata !95, metadata !4, metadata !74, metadata !6}
!95 = metadata !{metadata !"kernel_arg_type", metadata !"Scalar<((((4096) & ((512 - 1) << 11)) >> 11) + 1), typename Type<((4096) & ((1 << 11) - 1))>::name>"}
!96 = metadata !{null, metadata !1, metadata !2, metadata !97, metadata !4, metadata !15, metadata !6}
!97 = metadata !{metadata !"kernel_arg_type", metadata !"const uchar &"}
!98 = metadata !{null, metadata !1, metadata !2, metadata !97, metadata !4, metadata !17, metadata !6}
!99 = metadata !{null, metadata !1, metadata !2, metadata !100, metadata !4, metadata !101, metadata !6}
!100 = metadata !{metadata !"kernel_arg_type", metadata !"uchar"}
!101 = metadata !{metadata !"kernel_arg_name", metadata !"value"}
!102 = metadata !{null, metadata !8, metadata !9, metadata !60, metadata !11, metadata !103, metadata !6}
!103 = metadata !{metadata !"kernel_arg_name", metadata !"_rows", metadata !"_cols"}
!104 = metadata !{null, metadata !1, metadata !2, metadata !105, metadata !4, metadata !29, metadata !6}
!105 = metadata !{metadata !"kernel_arg_type", metadata !"const ap_uint<32> &"}
!106 = metadata !{metadata !107, [0 x i32]* @llvm_global_ctors_0}
!107 = metadata !{metadata !108}
!108 = metadata !{i32 0, i32 31, metadata !109}
!109 = metadata !{metadata !110}
!110 = metadata !{metadata !"llvm.global_ctors.0", metadata !111, metadata !"", i32 0, i32 31}
!111 = metadata !{metadata !112}
!112 = metadata !{i32 0, i32 0, i32 1}
!113 = metadata !{i32 64, i32 1, metadata !114, null}
!114 = metadata !{i32 786443, metadata !115, i32 63, i32 1, metadata !116, i32 8} ; [ DW_TAG_lexical_block ]
!115 = metadata !{i32 786478, i32 0, metadata !116, metadata !"test_pattern1", metadata !"test_pattern1", metadata !"_Z13test_pattern1RN3hls6streamI7ap_axiuILi24ELi1ELi1ELi1EEEE", metadata !116, i32 62, metadata !117, i1 false, i1 true, i32 0, i32 0, null, i32 256, i1 false, null, null, null, metadata !147, i32 63} ; [ DW_TAG_subprogram ]
!116 = metadata !{i32 786473, metadata !"TestPattern/tp.cpp", metadata !"D:\5CBaiduNetdiskDownload\5CP10_SD_VGA_m\5CIP_REPO\5CVIP", null} ; [ DW_TAG_file_type ]
!117 = metadata !{i32 786453, i32 0, metadata !"", i32 0, i32 0, i64 0, i64 0, i64 0, i32 0, null, metadata !118, i32 0, i32 0} ; [ DW_TAG_subroutine_type ]
!118 = metadata !{null, metadata !119}
!119 = metadata !{i32 786448, null, null, null, i32 0, i64 0, i64 0, i64 0, i32 0, metadata !120} ; [ DW_TAG_reference_type ]
!120 = metadata !{i32 786454, null, metadata !"AXI_STREAM", metadata !116, i32 9, i64 0, i64 0, i64 0, i32 0, metadata !121} ; [ DW_TAG_typedef ]
!121 = metadata !{i32 786434, metadata !122, metadata !"stream<ap_axiu<24, 1, 1, 1> >", metadata !123, i32 79, i64 96, i64 32, i32 0, i32 0, null, metadata !124, i32 0, null, metadata !11922} ; [ DW_TAG_class_type ]
!122 = metadata !{i32 786489, null, metadata !"hls", metadata !123, i32 69} ; [ DW_TAG_namespace ]
!123 = metadata !{i32 786473, metadata !"D:/Xilinx/Vivado/2017.4/common/technology/autopilot/hls_stream.h", metadata !"D:\5CBaiduNetdiskDownload\5CP10_SD_VGA_m\5CIP_REPO\5CVIP", null} ; [ DW_TAG_file_type ]
!124 = metadata !{metadata !125, metadata !11878, metadata !11882, metadata !11885, metadata !11890, metadata !11894, metadata !11898, metadata !11903, metadata !11907, metadata !11908, metadata !11909, metadata !11912, metadata !11915, metadata !11916, metadata !11919}
!125 = metadata !{i32 786445, metadata !121, metadata !"V", metadata !123, i32 163, i64 96, i64 32, i64 0, i32 0, metadata !126} ; [ DW_TAG_member ]
!126 = metadata !{i32 786434, null, metadata !"ap_axiu<24, 1, 1, 1>", metadata !127, i32 100, i64 96, i64 32, i32 0, i32 0, null, metadata !128, i32 0, null, metadata !11873} ; [ DW_TAG_class_type ]
!127 = metadata !{i32 786473, metadata !"D:/Xilinx/Vivado/2017.4/common/technology/autopilot\5Cap_axi_sdata.h", metadata !"D:\5CBaiduNetdiskDownload\5CP10_SD_VGA_m\5CIP_REPO\5CVIP", null} ; [ DW_TAG_file_type ]
!128 = metadata !{metadata !129, metadata !560, metadata !2779, metadata !2780, metadata !11870, metadata !11871, metadata !11872}
!129 = metadata !{i32 786445, metadata !126, metadata !"data", metadata !127, i32 101, i64 32, i64 32, i64 0, i32 0, metadata !130} ; [ DW_TAG_member ]
!130 = metadata !{i32 786434, null, metadata !"ap_uint<24>", metadata !131, i32 183, i64 32, i64 32, i32 0, i32 0, null, metadata !132, i32 0, null, metadata !559} ; [ DW_TAG_class_type ]
!131 = metadata !{i32 786473, metadata !"D:/Xilinx/Vivado/2017.4/common/technology/autopilot/ap_int.h", metadata !"D:\5CBaiduNetdiskDownload\5CP10_SD_VGA_m\5CIP_REPO\5CVIP", null} ; [ DW_TAG_file_type ]
!132 = metadata !{metadata !133, metadata !488, metadata !492, metadata !495, metadata !498, metadata !501, metadata !504, metadata !507, metadata !510, metadata !513, metadata !516, metadata !519, metadata !522, metadata !525, metadata !528, metadata !531, metadata !534, metadata !537, metadata !540, metadata !547, metadata !552, metadata !556}
!133 = metadata !{i32 786460, metadata !130, null, metadata !131, i32 0, i64 0, i64 0, i64 0, i32 0, metadata !134} ; [ DW_TAG_inheritance ]
!134 = metadata !{i32 786434, null, metadata !"ap_int_base<24, false, true>", metadata !135, i32 1453, i64 32, i64 32, i32 0, i32 0, null, metadata !136, i32 0, null, metadata !486} ; [ DW_TAG_class_type ]
!135 = metadata !{i32 786473, metadata !"D:/Xilinx/Vivado/2017.4/common/technology/autopilot/ap_int_syn.h", metadata !"D:\5CBaiduNetdiskDownload\5CP10_SD_VGA_m\5CIP_REPO\5CVIP", null} ; [ DW_TAG_file_type ]
!136 = metadata !{metadata !137, metadata !159, metadata !163, metadata !171, metadata !177, metadata !180, metadata !184, metadata !188, metadata !192, metadata !196, metadata !199, metadata !203, metadata !207, metadata !211, metadata !216, metadata !221, metadata !226, metadata !230, metadata !234, metadata !240, metadata !243, metadata !247, metadata !250, metadata !253, metadata !254, metadata !258, metadata !261, metadata !264, metadata !267, metadata !270, metadata !273, metadata !276, metadata !279, metadata !282, metadata !285, metadata !288, metadata !291, metadata !301, metadata !304, metadata !307, metadata !310, metadata !313, metadata !316, metadata !319, metadata !322, metadata !325, metadata !328, metadata !331, metadata !334, metadata !337, metadata !338, metadata !342, metadata !345, metadata !346, metadata !347, metadata !348, metadata !349, metadata !350, metadata !353, metadata !354, metadata !357, metadata !358, metadata !359, metadata !360, metadata !361, metadata !362, metadata !365, metadata !366, metadata !367, metadata !370, metadata !371, metadata !374, metadata !375, metadata !379, metadata !444, metadata !445, metadata !448, metadata !449, metadata !453, metadata !454, metadata !455, metadata !456, metadata !459, metadata !460, metadata !461, metadata !462, metadata !463, metadata !464, metadata !465, metadata !466, metadata !467, metadata !468, metadata !469, metadata !470, metadata !480, metadata !483}
!137 = metadata !{i32 786460, metadata !134, null, metadata !135, i32 0, i64 0, i64 0, i64 0, i32 0, metadata !138} ; [ DW_TAG_inheritance ]
!138 = metadata !{i32 786434, null, metadata !"ssdm_int<24 + 1024 * 0, false>", metadata !139, i32 26, i64 32, i64 32, i32 0, i32 0, null, metadata !140, i32 0, null, metadata !154} ; [ DW_TAG_class_type ]
!139 = metadata !{i32 786473, metadata !"D:/Xilinx/Vivado/2017.4/common/technology/autopilot/etc/autopilot_dt.def", metadata !"D:\5CBaiduNetdiskDownload\5CP10_SD_VGA_m\5CIP_REPO\5CVIP", null} ; [ DW_TAG_file_type ]
!140 = metadata !{metadata !141, metadata !143, metadata !149}
!141 = metadata !{i32 786445, metadata !138, metadata !"V", metadata !139, i32 26, i64 24, i64 32, i64 0, i32 0, metadata !142} ; [ DW_TAG_member ]
!142 = metadata !{i32 786468, null, metadata !"uint24", null, i32 0, i64 24, i64 32, i64 0, i32 0, i32 7} ; [ DW_TAG_base_type ]
!143 = metadata !{i32 786478, i32 0, metadata !138, metadata !"ssdm_int", metadata !"ssdm_int", metadata !"", metadata !139, i32 26, metadata !144, i1 false, i1 false, i32 0, i32 0, null, i32 256, i1 false, null, null, i32 0, metadata !147, i32 26} ; [ DW_TAG_subprogram ]
!144 = metadata !{i32 786453, i32 0, metadata !"", i32 0, i32 0, i64 0, i64 0, i64 0, i32 0, null, metadata !145, i32 0, i32 0} ; [ DW_TAG_subroutine_type ]
!145 = metadata !{null, metadata !146}
!146 = metadata !{i32 786447, i32 0, metadata !"", i32 0, i32 0, i64 64, i64 64, i64 0, i32 64, metadata !138} ; [ DW_TAG_pointer_type ]
!147 = metadata !{metadata !148}
!148 = metadata !{i32 786468}                     ; [ DW_TAG_base_type ]
!149 = metadata !{i32 786478, i32 0, metadata !138, metadata !"ssdm_int", metadata !"ssdm_int", metadata !"", metadata !139, i32 26, metadata !150, i1 false, i1 false, i32 0, i32 0, null, i32 320, i1 false, null, null, i32 0, metadata !147, i32 26} ; [ DW_TAG_subprogram ]
!150 = metadata !{i32 786453, i32 0, metadata !"", i32 0, i32 0, i64 0, i64 0, i64 0, i32 0, null, metadata !151, i32 0, i32 0} ; [ DW_TAG_subroutine_type ]
!151 = metadata !{null, metadata !146, metadata !152}
!152 = metadata !{i32 786448, null, null, null, i32 0, i64 0, i64 0, i64 0, i32 0, metadata !153} ; [ DW_TAG_reference_type ]
!153 = metadata !{i32 786470, null, metadata !"", null, i32 0, i64 0, i64 0, i64 0, i32 0, metadata !138} ; [ DW_TAG_const_type ]
!154 = metadata !{metadata !155, metadata !157}
!155 = metadata !{i32 786480, null, metadata !"_AP_N", metadata !156, i64 24, null, i32 0, i32 0} ; [ DW_TAG_template_value_parameter ]
!156 = metadata !{i32 786468, null, metadata !"int", null, i32 0, i64 32, i64 32, i64 0, i32 0, i32 5} ; [ DW_TAG_base_type ]
!157 = metadata !{i32 786480, null, metadata !"_AP_S", metadata !158, i64 0, null, i32 0, i32 0} ; [ DW_TAG_template_value_parameter ]
!158 = metadata !{i32 786468, null, metadata !"bool", null, i32 0, i64 8, i64 8, i64 0, i32 0, i32 2} ; [ DW_TAG_base_type ]
!159 = metadata !{i32 786478, i32 0, metadata !134, metadata !"ap_int_base", metadata !"ap_int_base", metadata !"", metadata !135, i32 1494, metadata !160, i1 false, i1 false, i32 0, i32 0, null, i32 256, i1 false, null, null, i32 0, metadata !147, i32 1494} ; [ DW_TAG_subprogram ]
!160 = metadata !{i32 786453, i32 0, metadata !"", i32 0, i32 0, i64 0, i64 0, i64 0, i32 0, null, metadata !161, i32 0, i32 0} ; [ DW_TAG_subroutine_type ]
!161 = metadata !{null, metadata !162}
!162 = metadata !{i32 786447, i32 0, metadata !"", i32 0, i32 0, i64 64, i64 64, i64 0, i32 64, metadata !134} ; [ DW_TAG_pointer_type ]
!163 = metadata !{i32 786478, i32 0, metadata !134, metadata !"ap_int_base<24, false>", metadata !"ap_int_base<24, false>", metadata !"", metadata !135, i32 1506, metadata !164, i1 false, i1 false, i32 0, i32 0, null, i32 256, i1 false, null, metadata !168, i32 0, metadata !147, i32 1506} ; [ DW_TAG_subprogram ]
!164 = metadata !{i32 786453, i32 0, metadata !"", i32 0, i32 0, i64 0, i64 0, i64 0, i32 0, null, metadata !165, i32 0, i32 0} ; [ DW_TAG_subroutine_type ]
!165 = metadata !{null, metadata !162, metadata !166}
!166 = metadata !{i32 786448, null, null, null, i32 0, i64 0, i64 0, i64 0, i32 0, metadata !167} ; [ DW_TAG_reference_type ]
!167 = metadata !{i32 786470, null, metadata !"", null, i32 0, i64 0, i64 0, i64 0, i32 0, metadata !134} ; [ DW_TAG_const_type ]
!168 = metadata !{metadata !169, metadata !170}
!169 = metadata !{i32 786480, null, metadata !"_AP_W2", metadata !156, i64 24, null, i32 0, i32 0} ; [ DW_TAG_template_value_parameter ]
!170 = metadata !{i32 786480, null, metadata !"_AP_S2", metadata !158, i64 0, null, i32 0, i32 0} ; [ DW_TAG_template_value_parameter ]
!171 = metadata !{i32 786478, i32 0, metadata !134, metadata !"ap_int_base<24, false>", metadata !"ap_int_base<24, false>", metadata !"", metadata !135, i32 1509, metadata !172, i1 false, i1 false, i32 0, i32 0, null, i32 256, i1 false, null, metadata !168, i32 0, metadata !147, i32 1509} ; [ DW_TAG_subprogram ]
!172 = metadata !{i32 786453, i32 0, metadata !"", i32 0, i32 0, i64 0, i64 0, i64 0, i32 0, null, metadata !173, i32 0, i32 0} ; [ DW_TAG_subroutine_type ]
!173 = metadata !{null, metadata !162, metadata !174}
!174 = metadata !{i32 786448, null, null, null, i32 0, i64 0, i64 0, i64 0, i32 0, metadata !175} ; [ DW_TAG_reference_type ]
!175 = metadata !{i32 786470, null, metadata !"", null, i32 0, i64 0, i64 0, i64 0, i32 0, metadata !176} ; [ DW_TAG_const_type ]
!176 = metadata !{i32 786485, null, metadata !"", null, i32 0, i64 0, i64 0, i64 0, i32 0, metadata !134} ; [ DW_TAG_volatile_type ]
!177 = metadata !{i32 786478, i32 0, metadata !134, metadata !"ap_int_base", metadata !"ap_int_base", metadata !"", metadata !135, i32 1516, metadata !178, i1 false, i1 false, i32 0, i32 0, null, i32 384, i1 false, null, null, i32 0, metadata !147, i32 1516} ; [ DW_TAG_subprogram ]
!178 = metadata !{i32 786453, i32 0, metadata !"", i32 0, i32 0, i64 0, i64 0, i64 0, i32 0, null, metadata !179, i32 0, i32 0} ; [ DW_TAG_subroutine_type ]
!179 = metadata !{null, metadata !162, metadata !158}
!180 = metadata !{i32 786478, i32 0, metadata !134, metadata !"ap_int_base", metadata !"ap_int_base", metadata !"", metadata !135, i32 1517, metadata !181, i1 false, i1 false, i32 0, i32 0, null, i32 384, i1 false, null, null, i32 0, metadata !147, i32 1517} ; [ DW_TAG_subprogram ]
!181 = metadata !{i32 786453, i32 0, metadata !"", i32 0, i32 0, i64 0, i64 0, i64 0, i32 0, null, metadata !182, i32 0, i32 0} ; [ DW_TAG_subroutine_type ]
!182 = metadata !{null, metadata !162, metadata !183}
!183 = metadata !{i32 786468, null, metadata !"signed char", null, i32 0, i64 8, i64 8, i64 0, i32 0, i32 6} ; [ DW_TAG_base_type ]
!184 = metadata !{i32 786478, i32 0, metadata !134, metadata !"ap_int_base", metadata !"ap_int_base", metadata !"", metadata !135, i32 1518, metadata !185, i1 false, i1 false, i32 0, i32 0, null, i32 384, i1 false, null, null, i32 0, metadata !147, i32 1518} ; [ DW_TAG_subprogram ]
!185 = metadata !{i32 786453, i32 0, metadata !"", i32 0, i32 0, i64 0, i64 0, i64 0, i32 0, null, metadata !186, i32 0, i32 0} ; [ DW_TAG_subroutine_type ]
!186 = metadata !{null, metadata !162, metadata !187}
!187 = metadata !{i32 786468, null, metadata !"unsigned char", null, i32 0, i64 8, i64 8, i64 0, i32 0, i32 8} ; [ DW_TAG_base_type ]
!188 = metadata !{i32 786478, i32 0, metadata !134, metadata !"ap_int_base", metadata !"ap_int_base", metadata !"", metadata !135, i32 1519, metadata !189, i1 false, i1 false, i32 0, i32 0, null, i32 384, i1 false, null, null, i32 0, metadata !147, i32 1519} ; [ DW_TAG_subprogram ]
!189 = metadata !{i32 786453, i32 0, metadata !"", i32 0, i32 0, i64 0, i64 0, i64 0, i32 0, null, metadata !190, i32 0, i32 0} ; [ DW_TAG_subroutine_type ]
!190 = metadata !{null, metadata !162, metadata !191}
!191 = metadata !{i32 786468, null, metadata !"short", null, i32 0, i64 16, i64 16, i64 0, i32 0, i32 5} ; [ DW_TAG_base_type ]
!192 = metadata !{i32 786478, i32 0, metadata !134, metadata !"ap_int_base", metadata !"ap_int_base", metadata !"", metadata !135, i32 1520, metadata !193, i1 false, i1 false, i32 0, i32 0, null, i32 384, i1 false, null, null, i32 0, metadata !147, i32 1520} ; [ DW_TAG_subprogram ]
!193 = metadata !{i32 786453, i32 0, metadata !"", i32 0, i32 0, i64 0, i64 0, i64 0, i32 0, null, metadata !194, i32 0, i32 0} ; [ DW_TAG_subroutine_type ]
!194 = metadata !{null, metadata !162, metadata !195}
!195 = metadata !{i32 786468, null, metadata !"unsigned short", null, i32 0, i64 16, i64 16, i64 0, i32 0, i32 7} ; [ DW_TAG_base_type ]
!196 = metadata !{i32 786478, i32 0, metadata !134, metadata !"ap_int_base", metadata !"ap_int_base", metadata !"", metadata !135, i32 1521, metadata !197, i1 false, i1 false, i32 0, i32 0, null, i32 384, i1 false, null, null, i32 0, metadata !147, i32 1521} ; [ DW_TAG_subprogram ]
!197 = metadata !{i32 786453, i32 0, metadata !"", i32 0, i32 0, i64 0, i64 0, i64 0, i32 0, null, metadata !198, i32 0, i32 0} ; [ DW_TAG_subroutine_type ]
!198 = metadata !{null, metadata !162, metadata !156}
!199 = metadata !{i32 786478, i32 0, metadata !134, metadata !"ap_int_base", metadata !"ap_int_base", metadata !"", metadata !135, i32 1522, metadata !200, i1 false, i1 false, i32 0, i32 0, null, i32 384, i1 false, null, null, i32 0, metadata !147, i32 1522} ; [ DW_TAG_subprogram ]
!200 = metadata !{i32 786453, i32 0, metadata !"", i32 0, i32 0, i64 0, i64 0, i64 0, i32 0, null, metadata !201, i32 0, i32 0} ; [ DW_TAG_subroutine_type ]
!201 = metadata !{null, metadata !162, metadata !202}
!202 = metadata !{i32 786468, null, metadata !"unsigned int", null, i32 0, i64 32, i64 32, i64 0, i32 0, i32 7} ; [ DW_TAG_base_type ]
!203 = metadata !{i32 786478, i32 0, metadata !134, metadata !"ap_int_base", metadata !"ap_int_base", metadata !"", metadata !135, i32 1523, metadata !204, i1 false, i1 false, i32 0, i32 0, null, i32 384, i1 false, null, null, i32 0, metadata !147, i32 1523} ; [ DW_TAG_subprogram ]
!204 = metadata !{i32 786453, i32 0, metadata !"", i32 0, i32 0, i64 0, i64 0, i64 0, i32 0, null, metadata !205, i32 0, i32 0} ; [ DW_TAG_subroutine_type ]
!205 = metadata !{null, metadata !162, metadata !206}
!206 = metadata !{i32 786468, null, metadata !"long int", null, i32 0, i64 32, i64 32, i64 0, i32 0, i32 5} ; [ DW_TAG_base_type ]
!207 = metadata !{i32 786478, i32 0, metadata !134, metadata !"ap_int_base", metadata !"ap_int_base", metadata !"", metadata !135, i32 1524, metadata !208, i1 false, i1 false, i32 0, i32 0, null, i32 384, i1 false, null, null, i32 0, metadata !147, i32 1524} ; [ DW_TAG_subprogram ]
!208 = metadata !{i32 786453, i32 0, metadata !"", i32 0, i32 0, i64 0, i64 0, i64 0, i32 0, null, metadata !209, i32 0, i32 0} ; [ DW_TAG_subroutine_type ]
!209 = metadata !{null, metadata !162, metadata !210}
!210 = metadata !{i32 786468, null, metadata !"long unsigned int", null, i32 0, i64 32, i64 32, i64 0, i32 0, i32 7} ; [ DW_TAG_base_type ]
!211 = metadata !{i32 786478, i32 0, metadata !134, metadata !"ap_int_base", metadata !"ap_int_base", metadata !"", metadata !135, i32 1525, metadata !212, i1 false, i1 false, i32 0, i32 0, null, i32 384, i1 false, null, null, i32 0, metadata !147, i32 1525} ; [ DW_TAG_subprogram ]
!212 = metadata !{i32 786453, i32 0, metadata !"", i32 0, i32 0, i64 0, i64 0, i64 0, i32 0, null, metadata !213, i32 0, i32 0} ; [ DW_TAG_subroutine_type ]
!213 = metadata !{null, metadata !162, metadata !214}
!214 = metadata !{i32 786454, null, metadata !"ap_slong", metadata !135, i32 112, i64 0, i64 0, i64 0, i32 0, metadata !215} ; [ DW_TAG_typedef ]
!215 = metadata !{i32 786468, null, metadata !"long long int", null, i32 0, i64 64, i64 64, i64 0, i32 0, i32 5} ; [ DW_TAG_base_type ]
!216 = metadata !{i32 786478, i32 0, metadata !134, metadata !"ap_int_base", metadata !"ap_int_base", metadata !"", metadata !135, i32 1526, metadata !217, i1 false, i1 false, i32 0, i32 0, null, i32 384, i1 false, null, null, i32 0, metadata !147, i32 1526} ; [ DW_TAG_subprogram ]
!217 = metadata !{i32 786453, i32 0, metadata !"", i32 0, i32 0, i64 0, i64 0, i64 0, i32 0, null, metadata !218, i32 0, i32 0} ; [ DW_TAG_subroutine_type ]
!218 = metadata !{null, metadata !162, metadata !219}
!219 = metadata !{i32 786454, null, metadata !"ap_ulong", metadata !135, i32 111, i64 0, i64 0, i64 0, i32 0, metadata !220} ; [ DW_TAG_typedef ]
!220 = metadata !{i32 786468, null, metadata !"long long unsigned int", null, i32 0, i64 64, i64 64, i64 0, i32 0, i32 7} ; [ DW_TAG_base_type ]
!221 = metadata !{i32 786478, i32 0, metadata !134, metadata !"ap_int_base", metadata !"ap_int_base", metadata !"", metadata !135, i32 1527, metadata !222, i1 false, i1 false, i32 0, i32 0, null, i32 384, i1 false, null, null, i32 0, metadata !147, i32 1527} ; [ DW_TAG_subprogram ]
!222 = metadata !{i32 786453, i32 0, metadata !"", i32 0, i32 0, i64 0, i64 0, i64 0, i32 0, null, metadata !223, i32 0, i32 0} ; [ DW_TAG_subroutine_type ]
!223 = metadata !{null, metadata !162, metadata !224}
!224 = metadata !{i32 786454, null, metadata !"half", metadata !135, i32 54, i64 0, i64 0, i64 0, i32 0, metadata !225} ; [ DW_TAG_typedef ]
!225 = metadata !{i32 786468, null, metadata !"half", null, i32 0, i64 16, i64 16, i64 0, i32 0, i32 4} ; [ DW_TAG_base_type ]
!226 = metadata !{i32 786478, i32 0, metadata !134, metadata !"ap_int_base", metadata !"ap_int_base", metadata !"", metadata !135, i32 1528, metadata !227, i1 false, i1 false, i32 0, i32 0, null, i32 384, i1 false, null, null, i32 0, metadata !147, i32 1528} ; [ DW_TAG_subprogram ]
!227 = metadata !{i32 786453, i32 0, metadata !"", i32 0, i32 0, i64 0, i64 0, i64 0, i32 0, null, metadata !228, i32 0, i32 0} ; [ DW_TAG_subroutine_type ]
!228 = metadata !{null, metadata !162, metadata !229}
!229 = metadata !{i32 786468, null, metadata !"float", null, i32 0, i64 32, i64 32, i64 0, i32 0, i32 4} ; [ DW_TAG_base_type ]
!230 = metadata !{i32 786478, i32 0, metadata !134, metadata !"ap_int_base", metadata !"ap_int_base", metadata !"", metadata !135, i32 1529, metadata !231, i1 false, i1 false, i32 0, i32 0, null, i32 384, i1 false, null, null, i32 0, metadata !147, i32 1529} ; [ DW_TAG_subprogram ]
!231 = metadata !{i32 786453, i32 0, metadata !"", i32 0, i32 0, i64 0, i64 0, i64 0, i32 0, null, metadata !232, i32 0, i32 0} ; [ DW_TAG_subroutine_type ]
!232 = metadata !{null, metadata !162, metadata !233}
!233 = metadata !{i32 786468, null, metadata !"double", null, i32 0, i64 64, i64 64, i64 0, i32 0, i32 4} ; [ DW_TAG_base_type ]
!234 = metadata !{i32 786478, i32 0, metadata !134, metadata !"ap_int_base", metadata !"ap_int_base", metadata !"", metadata !135, i32 1556, metadata !235, i1 false, i1 false, i32 0, i32 0, null, i32 256, i1 false, null, null, i32 0, metadata !147, i32 1556} ; [ DW_TAG_subprogram ]
!235 = metadata !{i32 786453, i32 0, metadata !"", i32 0, i32 0, i64 0, i64 0, i64 0, i32 0, null, metadata !236, i32 0, i32 0} ; [ DW_TAG_subroutine_type ]
!236 = metadata !{null, metadata !162, metadata !237}
!237 = metadata !{i32 786447, null, metadata !"", null, i32 0, i64 64, i64 64, i64 0, i32 0, metadata !238} ; [ DW_TAG_pointer_type ]
!238 = metadata !{i32 786470, null, metadata !"", null, i32 0, i64 0, i64 0, i64 0, i32 0, metadata !239} ; [ DW_TAG_const_type ]
!239 = metadata !{i32 786468, null, metadata !"char", null, i32 0, i64 8, i64 8, i64 0, i32 0, i32 6} ; [ DW_TAG_base_type ]
!240 = metadata !{i32 786478, i32 0, metadata !134, metadata !"ap_int_base", metadata !"ap_int_base", metadata !"", metadata !135, i32 1563, metadata !241, i1 false, i1 false, i32 0, i32 0, null, i32 256, i1 false, null, null, i32 0, metadata !147, i32 1563} ; [ DW_TAG_subprogram ]
!241 = metadata !{i32 786453, i32 0, metadata !"", i32 0, i32 0, i64 0, i64 0, i64 0, i32 0, null, metadata !242, i32 0, i32 0} ; [ DW_TAG_subroutine_type ]
!242 = metadata !{null, metadata !162, metadata !237, metadata !183}
!243 = metadata !{i32 786478, i32 0, metadata !134, metadata !"read", metadata !"read", metadata !"_ZNV11ap_int_baseILi24ELb0ELb1EE4readEv", metadata !135, i32 1584, metadata !244, i1 false, i1 false, i32 0, i32 0, null, i32 256, i1 false, null, null, i32 0, metadata !147, i32 1584} ; [ DW_TAG_subprogram ]
!244 = metadata !{i32 786453, i32 0, metadata !"", i32 0, i32 0, i64 0, i64 0, i64 0, i32 0, null, metadata !245, i32 0, i32 0} ; [ DW_TAG_subroutine_type ]
!245 = metadata !{metadata !134, metadata !246}
!246 = metadata !{i32 786447, i32 0, metadata !"", i32 0, i32 0, i64 64, i64 64, i64 0, i32 64, metadata !176} ; [ DW_TAG_pointer_type ]
!247 = metadata !{i32 786478, i32 0, metadata !134, metadata !"write", metadata !"write", metadata !"_ZNV11ap_int_baseILi24ELb0ELb1EE5writeERKS0_", metadata !135, i32 1590, metadata !248, i1 false, i1 false, i32 0, i32 0, null, i32 256, i1 false, null, null, i32 0, metadata !147, i32 1590} ; [ DW_TAG_subprogram ]
!248 = metadata !{i32 786453, i32 0, metadata !"", i32 0, i32 0, i64 0, i64 0, i64 0, i32 0, null, metadata !249, i32 0, i32 0} ; [ DW_TAG_subroutine_type ]
!249 = metadata !{null, metadata !246, metadata !166}
!250 = metadata !{i32 786478, i32 0, metadata !134, metadata !"operator=", metadata !"operator=", metadata !"_ZNV11ap_int_baseILi24ELb0ELb1EEaSERVKS0_", metadata !135, i32 1602, metadata !251, i1 false, i1 false, i32 0, i32 0, null, i32 256, i1 false, null, null, i32 0, metadata !147, i32 1602} ; [ DW_TAG_subprogram ]
!251 = metadata !{i32 786453, i32 0, metadata !"", i32 0, i32 0, i64 0, i64 0, i64 0, i32 0, null, metadata !252, i32 0, i32 0} ; [ DW_TAG_subroutine_type ]
!252 = metadata !{null, metadata !246, metadata !174}
!253 = metadata !{i32 786478, i32 0, metadata !134, metadata !"operator=", metadata !"operator=", metadata !"_ZNV11ap_int_baseILi24ELb0ELb1EEaSERKS0_", metadata !135, i32 1611, metadata !248, i1 false, i1 false, i32 0, i32 0, null, i32 256, i1 false, null, null, i32 0, metadata !147, i32 1611} ; [ DW_TAG_subprogram ]
!254 = metadata !{i32 786478, i32 0, metadata !134, metadata !"operator=", metadata !"operator=", metadata !"_ZN11ap_int_baseILi24ELb0ELb1EEaSERVKS0_", metadata !135, i32 1634, metadata !255, i1 false, i1 false, i32 0, i32 0, null, i32 256, i1 false, null, null, i32 0, metadata !147, i32 1634} ; [ DW_TAG_subprogram ]
!255 = metadata !{i32 786453, i32 0, metadata !"", i32 0, i32 0, i64 0, i64 0, i64 0, i32 0, null, metadata !256, i32 0, i32 0} ; [ DW_TAG_subroutine_type ]
!256 = metadata !{metadata !257, metadata !162, metadata !174}
!257 = metadata !{i32 786448, null, null, null, i32 0, i64 0, i64 0, i64 0, i32 0, metadata !134} ; [ DW_TAG_reference_type ]
!258 = metadata !{i32 786478, i32 0, metadata !134, metadata !"operator=", metadata !"operator=", metadata !"_ZN11ap_int_baseILi24ELb0ELb1EEaSERKS0_", metadata !135, i32 1639, metadata !259, i1 false, i1 false, i32 0, i32 0, null, i32 256, i1 false, null, null, i32 0, metadata !147, i32 1639} ; [ DW_TAG_subprogram ]
!259 = metadata !{i32 786453, i32 0, metadata !"", i32 0, i32 0, i64 0, i64 0, i64 0, i32 0, null, metadata !260, i32 0, i32 0} ; [ DW_TAG_subroutine_type ]
!260 = metadata !{metadata !257, metadata !162, metadata !166}
!261 = metadata !{i32 786478, i32 0, metadata !134, metadata !"operator=", metadata !"operator=", metadata !"_ZN11ap_int_baseILi24ELb0ELb1EEaSEPKc", metadata !135, i32 1643, metadata !262, i1 false, i1 false, i32 0, i32 0, null, i32 256, i1 false, null, null, i32 0, metadata !147, i32 1643} ; [ DW_TAG_subprogram ]
!262 = metadata !{i32 786453, i32 0, metadata !"", i32 0, i32 0, i64 0, i64 0, i64 0, i32 0, null, metadata !263, i32 0, i32 0} ; [ DW_TAG_subroutine_type ]
!263 = metadata !{metadata !257, metadata !162, metadata !237}
!264 = metadata !{i32 786478, i32 0, metadata !134, metadata !"set", metadata !"set", metadata !"_ZN11ap_int_baseILi24ELb0ELb1EE3setEPKca", metadata !135, i32 1651, metadata !265, i1 false, i1 false, i32 0, i32 0, null, i32 256, i1 false, null, null, i32 0, metadata !147, i32 1651} ; [ DW_TAG_subprogram ]
!265 = metadata !{i32 786453, i32 0, metadata !"", i32 0, i32 0, i64 0, i64 0, i64 0, i32 0, null, metadata !266, i32 0, i32 0} ; [ DW_TAG_subroutine_type ]
!266 = metadata !{metadata !257, metadata !162, metadata !237, metadata !183}
!267 = metadata !{i32 786478, i32 0, metadata !134, metadata !"operator=", metadata !"operator=", metadata !"_ZN11ap_int_baseILi24ELb0ELb1EEaSEa", metadata !135, i32 1665, metadata !268, i1 false, i1 false, i32 0, i32 0, null, i32 256, i1 false, null, null, i32 0, metadata !147, i32 1665} ; [ DW_TAG_subprogram ]
!268 = metadata !{i32 786453, i32 0, metadata !"", i32 0, i32 0, i64 0, i64 0, i64 0, i32 0, null, metadata !269, i32 0, i32 0} ; [ DW_TAG_subroutine_type ]
!269 = metadata !{metadata !257, metadata !162, metadata !183}
!270 = metadata !{i32 786478, i32 0, metadata !134, metadata !"operator=", metadata !"operator=", metadata !"_ZN11ap_int_baseILi24ELb0ELb1EEaSEh", metadata !135, i32 1666, metadata !271, i1 false, i1 false, i32 0, i32 0, null, i32 256, i1 false, null, null, i32 0, metadata !147, i32 1666} ; [ DW_TAG_subprogram ]
!271 = metadata !{i32 786453, i32 0, metadata !"", i32 0, i32 0, i64 0, i64 0, i64 0, i32 0, null, metadata !272, i32 0, i32 0} ; [ DW_TAG_subroutine_type ]
!272 = metadata !{metadata !257, metadata !162, metadata !187}
!273 = metadata !{i32 786478, i32 0, metadata !134, metadata !"operator=", metadata !"operator=", metadata !"_ZN11ap_int_baseILi24ELb0ELb1EEaSEs", metadata !135, i32 1667, metadata !274, i1 false, i1 false, i32 0, i32 0, null, i32 256, i1 false, null, null, i32 0, metadata !147, i32 1667} ; [ DW_TAG_subprogram ]
!274 = metadata !{i32 786453, i32 0, metadata !"", i32 0, i32 0, i64 0, i64 0, i64 0, i32 0, null, metadata !275, i32 0, i32 0} ; [ DW_TAG_subroutine_type ]
!275 = metadata !{metadata !257, metadata !162, metadata !191}
!276 = metadata !{i32 786478, i32 0, metadata !134, metadata !"operator=", metadata !"operator=", metadata !"_ZN11ap_int_baseILi24ELb0ELb1EEaSEt", metadata !135, i32 1668, metadata !277, i1 false, i1 false, i32 0, i32 0, null, i32 256, i1 false, null, null, i32 0, metadata !147, i32 1668} ; [ DW_TAG_subprogram ]
!277 = metadata !{i32 786453, i32 0, metadata !"", i32 0, i32 0, i64 0, i64 0, i64 0, i32 0, null, metadata !278, i32 0, i32 0} ; [ DW_TAG_subroutine_type ]
!278 = metadata !{metadata !257, metadata !162, metadata !195}
!279 = metadata !{i32 786478, i32 0, metadata !134, metadata !"operator=", metadata !"operator=", metadata !"_ZN11ap_int_baseILi24ELb0ELb1EEaSEi", metadata !135, i32 1669, metadata !280, i1 false, i1 false, i32 0, i32 0, null, i32 256, i1 false, null, null, i32 0, metadata !147, i32 1669} ; [ DW_TAG_subprogram ]
!280 = metadata !{i32 786453, i32 0, metadata !"", i32 0, i32 0, i64 0, i64 0, i64 0, i32 0, null, metadata !281, i32 0, i32 0} ; [ DW_TAG_subroutine_type ]
!281 = metadata !{metadata !257, metadata !162, metadata !156}
!282 = metadata !{i32 786478, i32 0, metadata !134, metadata !"operator=", metadata !"operator=", metadata !"_ZN11ap_int_baseILi24ELb0ELb1EEaSEj", metadata !135, i32 1670, metadata !283, i1 false, i1 false, i32 0, i32 0, null, i32 256, i1 false, null, null, i32 0, metadata !147, i32 1670} ; [ DW_TAG_subprogram ]
!283 = metadata !{i32 786453, i32 0, metadata !"", i32 0, i32 0, i64 0, i64 0, i64 0, i32 0, null, metadata !284, i32 0, i32 0} ; [ DW_TAG_subroutine_type ]
!284 = metadata !{metadata !257, metadata !162, metadata !202}
!285 = metadata !{i32 786478, i32 0, metadata !134, metadata !"operator=", metadata !"operator=", metadata !"_ZN11ap_int_baseILi24ELb0ELb1EEaSEx", metadata !135, i32 1671, metadata !286, i1 false, i1 false, i32 0, i32 0, null, i32 256, i1 false, null, null, i32 0, metadata !147, i32 1671} ; [ DW_TAG_subprogram ]
!286 = metadata !{i32 786453, i32 0, metadata !"", i32 0, i32 0, i64 0, i64 0, i64 0, i32 0, null, metadata !287, i32 0, i32 0} ; [ DW_TAG_subroutine_type ]
!287 = metadata !{metadata !257, metadata !162, metadata !214}
!288 = metadata !{i32 786478, i32 0, metadata !134, metadata !"operator=", metadata !"operator=", metadata !"_ZN11ap_int_baseILi24ELb0ELb1EEaSEy", metadata !135, i32 1672, metadata !289, i1 false, i1 false, i32 0, i32 0, null, i32 256, i1 false, null, null, i32 0, metadata !147, i32 1672} ; [ DW_TAG_subprogram ]
!289 = metadata !{i32 786453, i32 0, metadata !"", i32 0, i32 0, i64 0, i64 0, i64 0, i32 0, null, metadata !290, i32 0, i32 0} ; [ DW_TAG_subroutine_type ]
!290 = metadata !{metadata !257, metadata !162, metadata !219}
!291 = metadata !{i32 786478, i32 0, metadata !134, metadata !"operator unsigned int", metadata !"operator unsigned int", metadata !"_ZNK11ap_int_baseILi24ELb0ELb1EEcvjEv", metadata !135, i32 1710, metadata !292, i1 false, i1 false, i32 0, i32 0, null, i32 256, i1 false, null, null, i32 0, metadata !147, i32 1710} ; [ DW_TAG_subprogram ]
!292 = metadata !{i32 786453, i32 0, metadata !"", i32 0, i32 0, i64 0, i64 0, i64 0, i32 0, null, metadata !293, i32 0, i32 0} ; [ DW_TAG_subroutine_type ]
!293 = metadata !{metadata !294, metadata !300}
!294 = metadata !{i32 786454, metadata !134, metadata !"RetType", metadata !135, i32 1458, i64 0, i64 0, i64 0, i32 0, metadata !295} ; [ DW_TAG_typedef ]
!295 = metadata !{i32 786454, metadata !296, metadata !"Type", metadata !135, i32 1438, i64 0, i64 0, i64 0, i32 0, metadata !202} ; [ DW_TAG_typedef ]
!296 = metadata !{i32 786434, null, metadata !"retval<3, false>", metadata !135, i32 1437, i64 8, i64 8, i32 0, i32 0, null, metadata !297, i32 0, null, metadata !298} ; [ DW_TAG_class_type ]
!297 = metadata !{i32 0}
!298 = metadata !{metadata !299, metadata !157}
!299 = metadata !{i32 786480, null, metadata !"_AP_N", metadata !156, i64 3, null, i32 0, i32 0} ; [ DW_TAG_template_value_parameter ]
!300 = metadata !{i32 786447, i32 0, metadata !"", i32 0, i32 0, i64 64, i64 64, i64 0, i32 64, metadata !167} ; [ DW_TAG_pointer_type ]
!301 = metadata !{i32 786478, i32 0, metadata !134, metadata !"to_bool", metadata !"to_bool", metadata !"_ZNK11ap_int_baseILi24ELb0ELb1EE7to_boolEv", metadata !135, i32 1716, metadata !302, i1 false, i1 false, i32 0, i32 0, null, i32 256, i1 false, null, null, i32 0, metadata !147, i32 1716} ; [ DW_TAG_subprogram ]
!302 = metadata !{i32 786453, i32 0, metadata !"", i32 0, i32 0, i64 0, i64 0, i64 0, i32 0, null, metadata !303, i32 0, i32 0} ; [ DW_TAG_subroutine_type ]
!303 = metadata !{metadata !158, metadata !300}
!304 = metadata !{i32 786478, i32 0, metadata !134, metadata !"to_uchar", metadata !"to_uchar", metadata !"_ZNK11ap_int_baseILi24ELb0ELb1EE8to_ucharEv", metadata !135, i32 1717, metadata !305, i1 false, i1 false, i32 0, i32 0, null, i32 256, i1 false, null, null, i32 0, metadata !147, i32 1717} ; [ DW_TAG_subprogram ]
!305 = metadata !{i32 786453, i32 0, metadata !"", i32 0, i32 0, i64 0, i64 0, i64 0, i32 0, null, metadata !306, i32 0, i32 0} ; [ DW_TAG_subroutine_type ]
!306 = metadata !{metadata !187, metadata !300}
!307 = metadata !{i32 786478, i32 0, metadata !134, metadata !"to_char", metadata !"to_char", metadata !"_ZNK11ap_int_baseILi24ELb0ELb1EE7to_charEv", metadata !135, i32 1718, metadata !308, i1 false, i1 false, i32 0, i32 0, null, i32 256, i1 false, null, null, i32 0, metadata !147, i32 1718} ; [ DW_TAG_subprogram ]
!308 = metadata !{i32 786453, i32 0, metadata !"", i32 0, i32 0, i64 0, i64 0, i64 0, i32 0, null, metadata !309, i32 0, i32 0} ; [ DW_TAG_subroutine_type ]
!309 = metadata !{metadata !183, metadata !300}
!310 = metadata !{i32 786478, i32 0, metadata !134, metadata !"to_ushort", metadata !"to_ushort", metadata !"_ZNK11ap_int_baseILi24ELb0ELb1EE9to_ushortEv", metadata !135, i32 1719, metadata !311, i1 false, i1 false, i32 0, i32 0, null, i32 256, i1 false, null, null, i32 0, metadata !147, i32 1719} ; [ DW_TAG_subprogram ]
!311 = metadata !{i32 786453, i32 0, metadata !"", i32 0, i32 0, i64 0, i64 0, i64 0, i32 0, null, metadata !312, i32 0, i32 0} ; [ DW_TAG_subroutine_type ]
!312 = metadata !{metadata !195, metadata !300}
!313 = metadata !{i32 786478, i32 0, metadata !134, metadata !"to_short", metadata !"to_short", metadata !"_ZNK11ap_int_baseILi24ELb0ELb1EE8to_shortEv", metadata !135, i32 1720, metadata !314, i1 false, i1 false, i32 0, i32 0, null, i32 256, i1 false, null, null, i32 0, metadata !147, i32 1720} ; [ DW_TAG_subprogram ]
!314 = metadata !{i32 786453, i32 0, metadata !"", i32 0, i32 0, i64 0, i64 0, i64 0, i32 0, null, metadata !315, i32 0, i32 0} ; [ DW_TAG_subroutine_type ]
!315 = metadata !{metadata !191, metadata !300}
!316 = metadata !{i32 786478, i32 0, metadata !134, metadata !"to_int", metadata !"to_int", metadata !"_ZNK11ap_int_baseILi24ELb0ELb1EE6to_intEv", metadata !135, i32 1721, metadata !317, i1 false, i1 false, i32 0, i32 0, null, i32 256, i1 false, null, null, i32 0, metadata !147, i32 1721} ; [ DW_TAG_subprogram ]
!317 = metadata !{i32 786453, i32 0, metadata !"", i32 0, i32 0, i64 0, i64 0, i64 0, i32 0, null, metadata !318, i32 0, i32 0} ; [ DW_TAG_subroutine_type ]
!318 = metadata !{metadata !156, metadata !300}
!319 = metadata !{i32 786478, i32 0, metadata !134, metadata !"to_uint", metadata !"to_uint", metadata !"_ZNK11ap_int_baseILi24ELb0ELb1EE7to_uintEv", metadata !135, i32 1722, metadata !320, i1 false, i1 false, i32 0, i32 0, null, i32 256, i1 false, null, null, i32 0, metadata !147, i32 1722} ; [ DW_TAG_subprogram ]
!320 = metadata !{i32 786453, i32 0, metadata !"", i32 0, i32 0, i64 0, i64 0, i64 0, i32 0, null, metadata !321, i32 0, i32 0} ; [ DW_TAG_subroutine_type ]
!321 = metadata !{metadata !202, metadata !300}
!322 = metadata !{i32 786478, i32 0, metadata !134, metadata !"to_long", metadata !"to_long", metadata !"_ZNK11ap_int_baseILi24ELb0ELb1EE7to_longEv", metadata !135, i32 1723, metadata !323, i1 false, i1 false, i32 0, i32 0, null, i32 256, i1 false, null, null, i32 0, metadata !147, i32 1723} ; [ DW_TAG_subprogram ]
!323 = metadata !{i32 786453, i32 0, metadata !"", i32 0, i32 0, i64 0, i64 0, i64 0, i32 0, null, metadata !324, i32 0, i32 0} ; [ DW_TAG_subroutine_type ]
!324 = metadata !{metadata !206, metadata !300}
!325 = metadata !{i32 786478, i32 0, metadata !134, metadata !"to_ulong", metadata !"to_ulong", metadata !"_ZNK11ap_int_baseILi24ELb0ELb1EE8to_ulongEv", metadata !135, i32 1724, metadata !326, i1 false, i1 false, i32 0, i32 0, null, i32 256, i1 false, null, null, i32 0, metadata !147, i32 1724} ; [ DW_TAG_subprogram ]
!326 = metadata !{i32 786453, i32 0, metadata !"", i32 0, i32 0, i64 0, i64 0, i64 0, i32 0, null, metadata !327, i32 0, i32 0} ; [ DW_TAG_subroutine_type ]
!327 = metadata !{metadata !210, metadata !300}
!328 = metadata !{i32 786478, i32 0, metadata !134, metadata !"to_int64", metadata !"to_int64", metadata !"_ZNK11ap_int_baseILi24ELb0ELb1EE8to_int64Ev", metadata !135, i32 1725, metadata !329, i1 false, i1 false, i32 0, i32 0, null, i32 256, i1 false, null, null, i32 0, metadata !147, i32 1725} ; [ DW_TAG_subprogram ]
!329 = metadata !{i32 786453, i32 0, metadata !"", i32 0, i32 0, i64 0, i64 0, i64 0, i32 0, null, metadata !330, i32 0, i32 0} ; [ DW_TAG_subroutine_type ]
!330 = metadata !{metadata !214, metadata !300}
!331 = metadata !{i32 786478, i32 0, metadata !134, metadata !"to_uint64", metadata !"to_uint64", metadata !"_ZNK11ap_int_baseILi24ELb0ELb1EE9to_uint64Ev", metadata !135, i32 1726, metadata !332, i1 false, i1 false, i32 0, i32 0, null, i32 256, i1 false, null, null, i32 0, metadata !147, i32 1726} ; [ DW_TAG_subprogram ]
!332 = metadata !{i32 786453, i32 0, metadata !"", i32 0, i32 0, i64 0, i64 0, i64 0, i32 0, null, metadata !333, i32 0, i32 0} ; [ DW_TAG_subroutine_type ]
!333 = metadata !{metadata !219, metadata !300}
!334 = metadata !{i32 786478, i32 0, metadata !134, metadata !"to_double", metadata !"to_double", metadata !"_ZNK11ap_int_baseILi24ELb0ELb1EE9to_doubleEv", metadata !135, i32 1727, metadata !335, i1 false, i1 false, i32 0, i32 0, null, i32 256, i1 false, null, null, i32 0, metadata !147, i32 1727} ; [ DW_TAG_subprogram ]
!335 = metadata !{i32 786453, i32 0, metadata !"", i32 0, i32 0, i64 0, i64 0, i64 0, i32 0, null, metadata !336, i32 0, i32 0} ; [ DW_TAG_subroutine_type ]
!336 = metadata !{metadata !233, metadata !300}
!337 = metadata !{i32 786478, i32 0, metadata !134, metadata !"length", metadata !"length", metadata !"_ZNK11ap_int_baseILi24ELb0ELb1EE6lengthEv", metadata !135, i32 1741, metadata !317, i1 false, i1 false, i32 0, i32 0, null, i32 256, i1 false, null, null, i32 0, metadata !147, i32 1741} ; [ DW_TAG_subprogram ]
!338 = metadata !{i32 786478, i32 0, metadata !134, metadata !"length", metadata !"length", metadata !"_ZNVK11ap_int_baseILi24ELb0ELb1EE6lengthEv", metadata !135, i32 1742, metadata !339, i1 false, i1 false, i32 0, i32 0, null, i32 256, i1 false, null, null, i32 0, metadata !147, i32 1742} ; [ DW_TAG_subprogram ]
!339 = metadata !{i32 786453, i32 0, metadata !"", i32 0, i32 0, i64 0, i64 0, i64 0, i32 0, null, metadata !340, i32 0, i32 0} ; [ DW_TAG_subroutine_type ]
!340 = metadata !{metadata !156, metadata !341}
!341 = metadata !{i32 786447, i32 0, metadata !"", i32 0, i32 0, i64 64, i64 64, i64 0, i32 64, metadata !175} ; [ DW_TAG_pointer_type ]
!342 = metadata !{i32 786478, i32 0, metadata !134, metadata !"reverse", metadata !"reverse", metadata !"_ZN11ap_int_baseILi24ELb0ELb1EE7reverseEv", metadata !135, i32 1747, metadata !343, i1 false, i1 false, i32 0, i32 0, null, i32 256, i1 false, null, null, i32 0, metadata !147, i32 1747} ; [ DW_TAG_subprogram ]
!343 = metadata !{i32 786453, i32 0, metadata !"", i32 0, i32 0, i64 0, i64 0, i64 0, i32 0, null, metadata !344, i32 0, i32 0} ; [ DW_TAG_subroutine_type ]
!344 = metadata !{metadata !257, metadata !162}
!345 = metadata !{i32 786478, i32 0, metadata !134, metadata !"iszero", metadata !"iszero", metadata !"_ZNK11ap_int_baseILi24ELb0ELb1EE6iszeroEv", metadata !135, i32 1753, metadata !302, i1 false, i1 false, i32 0, i32 0, null, i32 256, i1 false, null, null, i32 0, metadata !147, i32 1753} ; [ DW_TAG_subprogram ]
!346 = metadata !{i32 786478, i32 0, metadata !134, metadata !"is_zero", metadata !"is_zero", metadata !"_ZNK11ap_int_baseILi24ELb0ELb1EE7is_zeroEv", metadata !135, i32 1758, metadata !302, i1 false, i1 false, i32 0, i32 0, null, i32 256, i1 false, null, null, i32 0, metadata !147, i32 1758} ; [ DW_TAG_subprogram ]
!347 = metadata !{i32 786478, i32 0, metadata !134, metadata !"sign", metadata !"sign", metadata !"_ZNK11ap_int_baseILi24ELb0ELb1EE4signEv", metadata !135, i32 1763, metadata !302, i1 false, i1 false, i32 0, i32 0, null, i32 256, i1 false, null, null, i32 0, metadata !147, i32 1763} ; [ DW_TAG_subprogram ]
!348 = metadata !{i32 786478, i32 0, metadata !134, metadata !"clear", metadata !"clear", metadata !"_ZN11ap_int_baseILi24ELb0ELb1EE5clearEi", metadata !135, i32 1771, metadata !197, i1 false, i1 false, i32 0, i32 0, null, i32 256, i1 false, null, null, i32 0, metadata !147, i32 1771} ; [ DW_TAG_subprogram ]
!349 = metadata !{i32 786478, i32 0, metadata !134, metadata !"invert", metadata !"invert", metadata !"_ZN11ap_int_baseILi24ELb0ELb1EE6invertEi", metadata !135, i32 1777, metadata !197, i1 false, i1 false, i32 0, i32 0, null, i32 256, i1 false, null, null, i32 0, metadata !147, i32 1777} ; [ DW_TAG_subprogram ]
!350 = metadata !{i32 786478, i32 0, metadata !134, metadata !"test", metadata !"test", metadata !"_ZNK11ap_int_baseILi24ELb0ELb1EE4testEi", metadata !135, i32 1785, metadata !351, i1 false, i1 false, i32 0, i32 0, null, i32 256, i1 false, null, null, i32 0, metadata !147, i32 1785} ; [ DW_TAG_subprogram ]
!351 = metadata !{i32 786453, i32 0, metadata !"", i32 0, i32 0, i64 0, i64 0, i64 0, i32 0, null, metadata !352, i32 0, i32 0} ; [ DW_TAG_subroutine_type ]
!352 = metadata !{metadata !158, metadata !300, metadata !156}
!353 = metadata !{i32 786478, i32 0, metadata !134, metadata !"set", metadata !"set", metadata !"_ZN11ap_int_baseILi24ELb0ELb1EE3setEi", metadata !135, i32 1791, metadata !197, i1 false, i1 false, i32 0, i32 0, null, i32 256, i1 false, null, null, i32 0, metadata !147, i32 1791} ; [ DW_TAG_subprogram ]
!354 = metadata !{i32 786478, i32 0, metadata !134, metadata !"set", metadata !"set", metadata !"_ZN11ap_int_baseILi24ELb0ELb1EE3setEib", metadata !135, i32 1797, metadata !355, i1 false, i1 false, i32 0, i32 0, null, i32 256, i1 false, null, null, i32 0, metadata !147, i32 1797} ; [ DW_TAG_subprogram ]
!355 = metadata !{i32 786453, i32 0, metadata !"", i32 0, i32 0, i64 0, i64 0, i64 0, i32 0, null, metadata !356, i32 0, i32 0} ; [ DW_TAG_subroutine_type ]
!356 = metadata !{null, metadata !162, metadata !156, metadata !158}
!357 = metadata !{i32 786478, i32 0, metadata !134, metadata !"lrotate", metadata !"lrotate", metadata !"_ZN11ap_int_baseILi24ELb0ELb1EE7lrotateEi", metadata !135, i32 1804, metadata !197, i1 false, i1 false, i32 0, i32 0, null, i32 256, i1 false, null, null, i32 0, metadata !147, i32 1804} ; [ DW_TAG_subprogram ]
!358 = metadata !{i32 786478, i32 0, metadata !134, metadata !"rrotate", metadata !"rrotate", metadata !"_ZN11ap_int_baseILi24ELb0ELb1EE7rrotateEi", metadata !135, i32 1813, metadata !197, i1 false, i1 false, i32 0, i32 0, null, i32 256, i1 false, null, null, i32 0, metadata !147, i32 1813} ; [ DW_TAG_subprogram ]
!359 = metadata !{i32 786478, i32 0, metadata !134, metadata !"set_bit", metadata !"set_bit", metadata !"_ZN11ap_int_baseILi24ELb0ELb1EE7set_bitEib", metadata !135, i32 1821, metadata !355, i1 false, i1 false, i32 0, i32 0, null, i32 256, i1 false, null, null, i32 0, metadata !147, i32 1821} ; [ DW_TAG_subprogram ]
!360 = metadata !{i32 786478, i32 0, metadata !134, metadata !"get_bit", metadata !"get_bit", metadata !"_ZNK11ap_int_baseILi24ELb0ELb1EE7get_bitEi", metadata !135, i32 1826, metadata !351, i1 false, i1 false, i32 0, i32 0, null, i32 256, i1 false, null, null, i32 0, metadata !147, i32 1826} ; [ DW_TAG_subprogram ]
!361 = metadata !{i32 786478, i32 0, metadata !134, metadata !"b_not", metadata !"b_not", metadata !"_ZN11ap_int_baseILi24ELb0ELb1EE5b_notEv", metadata !135, i32 1831, metadata !160, i1 false, i1 false, i32 0, i32 0, null, i32 256, i1 false, null, null, i32 0, metadata !147, i32 1831} ; [ DW_TAG_subprogram ]
!362 = metadata !{i32 786478, i32 0, metadata !134, metadata !"countLeadingZeros", metadata !"countLeadingZeros", metadata !"_ZN11ap_int_baseILi24ELb0ELb1EE17countLeadingZerosEv", metadata !135, i32 1838, metadata !363, i1 false, i1 false, i32 0, i32 0, null, i32 256, i1 false, null, null, i32 0, metadata !147, i32 1838} ; [ DW_TAG_subprogram ]
!363 = metadata !{i32 786453, i32 0, metadata !"", i32 0, i32 0, i64 0, i64 0, i64 0, i32 0, null, metadata !364, i32 0, i32 0} ; [ DW_TAG_subroutine_type ]
!364 = metadata !{metadata !156, metadata !162}
!365 = metadata !{i32 786478, i32 0, metadata !134, metadata !"operator++", metadata !"operator++", metadata !"_ZN11ap_int_baseILi24ELb0ELb1EEppEv", metadata !135, i32 1895, metadata !343, i1 false, i1 false, i32 0, i32 0, null, i32 256, i1 false, null, null, i32 0, metadata !147, i32 1895} ; [ DW_TAG_subprogram ]
!366 = metadata !{i32 786478, i32 0, metadata !134, metadata !"operator--", metadata !"operator--", metadata !"_ZN11ap_int_baseILi24ELb0ELb1EEmmEv", metadata !135, i32 1899, metadata !343, i1 false, i1 false, i32 0, i32 0, null, i32 256, i1 false, null, null, i32 0, metadata !147, i32 1899} ; [ DW_TAG_subprogram ]
!367 = metadata !{i32 786478, i32 0, metadata !134, metadata !"operator++", metadata !"operator++", metadata !"_ZN11ap_int_baseILi24ELb0ELb1EEppEi", metadata !135, i32 1907, metadata !368, i1 false, i1 false, i32 0, i32 0, null, i32 256, i1 false, null, null, i32 0, metadata !147, i32 1907} ; [ DW_TAG_subprogram ]
!368 = metadata !{i32 786453, i32 0, metadata !"", i32 0, i32 0, i64 0, i64 0, i64 0, i32 0, null, metadata !369, i32 0, i32 0} ; [ DW_TAG_subroutine_type ]
!369 = metadata !{metadata !167, metadata !162, metadata !156}
!370 = metadata !{i32 786478, i32 0, metadata !134, metadata !"operator--", metadata !"operator--", metadata !"_ZN11ap_int_baseILi24ELb0ELb1EEmmEi", metadata !135, i32 1912, metadata !368, i1 false, i1 false, i32 0, i32 0, null, i32 256, i1 false, null, null, i32 0, metadata !147, i32 1912} ; [ DW_TAG_subprogram ]
!371 = metadata !{i32 786478, i32 0, metadata !134, metadata !"operator+", metadata !"operator+", metadata !"_ZNK11ap_int_baseILi24ELb0ELb1EEpsEv", metadata !135, i32 1921, metadata !372, i1 false, i1 false, i32 0, i32 0, null, i32 256, i1 false, null, null, i32 0, metadata !147, i32 1921} ; [ DW_TAG_subprogram ]
!372 = metadata !{i32 786453, i32 0, metadata !"", i32 0, i32 0, i64 0, i64 0, i64 0, i32 0, null, metadata !373, i32 0, i32 0} ; [ DW_TAG_subroutine_type ]
!373 = metadata !{metadata !134, metadata !300}
!374 = metadata !{i32 786478, i32 0, metadata !134, metadata !"operator!", metadata !"operator!", metadata !"_ZNK11ap_int_baseILi24ELb0ELb1EEntEv", metadata !135, i32 1927, metadata !302, i1 false, i1 false, i32 0, i32 0, null, i32 256, i1 false, null, null, i32 0, metadata !147, i32 1927} ; [ DW_TAG_subprogram ]
!375 = metadata !{i32 786478, i32 0, metadata !134, metadata !"operator-", metadata !"operator-", metadata !"_ZNK11ap_int_baseILi24ELb0ELb1EEngEv", metadata !135, i32 1932, metadata !376, i1 false, i1 false, i32 0, i32 0, null, i32 256, i1 false, null, null, i32 0, metadata !147, i32 1932} ; [ DW_TAG_subprogram ]
!376 = metadata !{i32 786453, i32 0, metadata !"", i32 0, i32 0, i64 0, i64 0, i64 0, i32 0, null, metadata !377, i32 0, i32 0} ; [ DW_TAG_subroutine_type ]
!377 = metadata !{metadata !378, metadata !300}
!378 = metadata !{i32 786434, null, metadata !"ap_int_base<25, true, true>", metadata !135, i32 651, i32 0, i32 0, i32 0, i32 4, null, null, i32 0} ; [ DW_TAG_class_type ]
!379 = metadata !{i32 786478, i32 0, metadata !134, metadata !"range", metadata !"range", metadata !"_ZN11ap_int_baseILi24ELb0ELb1EE5rangeEii", metadata !135, i32 2062, metadata !380, i1 false, i1 false, i32 0, i32 0, null, i32 256, i1 false, null, null, i32 0, metadata !147, i32 2062} ; [ DW_TAG_subprogram ]
!380 = metadata !{i32 786453, i32 0, metadata !"", i32 0, i32 0, i64 0, i64 0, i64 0, i32 0, null, metadata !381, i32 0, i32 0} ; [ DW_TAG_subroutine_type ]
!381 = metadata !{metadata !382, metadata !162, metadata !156, metadata !156}
!382 = metadata !{i32 786434, null, metadata !"ap_range_ref<24, false>", metadata !135, i32 925, i64 128, i64 64, i32 0, i32 0, null, metadata !383, i32 0, null, metadata !442} ; [ DW_TAG_class_type ]
!383 = metadata !{metadata !384, metadata !385, metadata !386, metadata !387, metadata !393, metadata !397, metadata !401, metadata !404, metadata !408, metadata !411, metadata !415, metadata !418, metadata !419, metadata !422, metadata !425, metadata !428, metadata !431, metadata !434, metadata !437, metadata !438, metadata !439}
!384 = metadata !{i32 786445, metadata !382, metadata !"d_bv", metadata !135, i32 926, i64 64, i64 64, i64 0, i32 0, metadata !257} ; [ DW_TAG_member ]
!385 = metadata !{i32 786445, metadata !382, metadata !"l_index", metadata !135, i32 927, i64 32, i64 32, i64 64, i32 0, metadata !156} ; [ DW_TAG_member ]
!386 = metadata !{i32 786445, metadata !382, metadata !"h_index", metadata !135, i32 928, i64 32, i64 32, i64 96, i32 0, metadata !156} ; [ DW_TAG_member ]
!387 = metadata !{i32 786478, i32 0, metadata !382, metadata !"ap_range_ref", metadata !"ap_range_ref", metadata !"", metadata !135, i32 931, metadata !388, i1 false, i1 false, i32 0, i32 0, null, i32 256, i1 false, null, null, i32 0, metadata !147, i32 931} ; [ DW_TAG_subprogram ]
!388 = metadata !{i32 786453, i32 0, metadata !"", i32 0, i32 0, i64 0, i64 0, i64 0, i32 0, null, metadata !389, i32 0, i32 0} ; [ DW_TAG_subroutine_type ]
!389 = metadata !{null, metadata !390, metadata !391}
!390 = metadata !{i32 786447, i32 0, metadata !"", i32 0, i32 0, i64 64, i64 64, i64 0, i32 64, metadata !382} ; [ DW_TAG_pointer_type ]
!391 = metadata !{i32 786448, null, null, null, i32 0, i64 0, i64 0, i64 0, i32 0, metadata !392} ; [ DW_TAG_reference_type ]
!392 = metadata !{i32 786470, null, metadata !"", null, i32 0, i64 0, i64 0, i64 0, i32 0, metadata !382} ; [ DW_TAG_const_type ]
!393 = metadata !{i32 786478, i32 0, metadata !382, metadata !"ap_range_ref", metadata !"ap_range_ref", metadata !"", metadata !135, i32 934, metadata !394, i1 false, i1 false, i32 0, i32 0, null, i32 256, i1 false, null, null, i32 0, metadata !147, i32 934} ; [ DW_TAG_subprogram ]
!394 = metadata !{i32 786453, i32 0, metadata !"", i32 0, i32 0, i64 0, i64 0, i64 0, i32 0, null, metadata !395, i32 0, i32 0} ; [ DW_TAG_subroutine_type ]
!395 = metadata !{null, metadata !390, metadata !396, metadata !156, metadata !156}
!396 = metadata !{i32 786447, null, metadata !"", null, i32 0, i64 64, i64 64, i64 0, i32 0, metadata !134} ; [ DW_TAG_pointer_type ]
!397 = metadata !{i32 786478, i32 0, metadata !382, metadata !"operator ap_int_base", metadata !"operator ap_int_base", metadata !"_ZNK12ap_range_refILi24ELb0EEcv11ap_int_baseILi24ELb0ELb1EEEv", metadata !135, i32 939, metadata !398, i1 false, i1 false, i32 0, i32 0, null, i32 256, i1 false, null, null, i32 0, metadata !147, i32 939} ; [ DW_TAG_subprogram ]
!398 = metadata !{i32 786453, i32 0, metadata !"", i32 0, i32 0, i64 0, i64 0, i64 0, i32 0, null, metadata !399, i32 0, i32 0} ; [ DW_TAG_subroutine_type ]
!399 = metadata !{metadata !134, metadata !400}
!400 = metadata !{i32 786447, i32 0, metadata !"", i32 0, i32 0, i64 64, i64 64, i64 0, i32 64, metadata !392} ; [ DW_TAG_pointer_type ]
!401 = metadata !{i32 786478, i32 0, metadata !382, metadata !"operator unsigned long long", metadata !"operator unsigned long long", metadata !"_ZNK12ap_range_refILi24ELb0EEcvyEv", metadata !135, i32 945, metadata !402, i1 false, i1 false, i32 0, i32 0, null, i32 256, i1 false, null, null, i32 0, metadata !147, i32 945} ; [ DW_TAG_subprogram ]
!402 = metadata !{i32 786453, i32 0, metadata !"", i32 0, i32 0, i64 0, i64 0, i64 0, i32 0, null, metadata !403, i32 0, i32 0} ; [ DW_TAG_subroutine_type ]
!403 = metadata !{metadata !220, metadata !400}
!404 = metadata !{i32 786478, i32 0, metadata !382, metadata !"operator=", metadata !"operator=", metadata !"_ZN12ap_range_refILi24ELb0EEaSEy", metadata !135, i32 949, metadata !405, i1 false, i1 false, i32 0, i32 0, null, i32 256, i1 false, null, null, i32 0, metadata !147, i32 949} ; [ DW_TAG_subprogram ]
!405 = metadata !{i32 786453, i32 0, metadata !"", i32 0, i32 0, i64 0, i64 0, i64 0, i32 0, null, metadata !406, i32 0, i32 0} ; [ DW_TAG_subroutine_type ]
!406 = metadata !{metadata !407, metadata !390, metadata !220}
!407 = metadata !{i32 786448, null, null, null, i32 0, i64 0, i64 0, i64 0, i32 0, metadata !382} ; [ DW_TAG_reference_type ]
!408 = metadata !{i32 786478, i32 0, metadata !382, metadata !"operator=", metadata !"operator=", metadata !"_ZN12ap_range_refILi24ELb0EEaSERKS0_", metadata !135, i32 967, metadata !409, i1 false, i1 false, i32 0, i32 0, null, i32 256, i1 false, null, null, i32 0, metadata !147, i32 967} ; [ DW_TAG_subprogram ]
!409 = metadata !{i32 786453, i32 0, metadata !"", i32 0, i32 0, i64 0, i64 0, i64 0, i32 0, null, metadata !410, i32 0, i32 0} ; [ DW_TAG_subroutine_type ]
!410 = metadata !{metadata !407, metadata !390, metadata !391}
!411 = metadata !{i32 786478, i32 0, metadata !382, metadata !"operator,", metadata !"operator,", metadata !"_ZN12ap_range_refILi24ELb0EEcmER11ap_int_baseILi24ELb0ELb1EE", metadata !135, i32 1022, metadata !412, i1 false, i1 false, i32 0, i32 0, null, i32 256, i1 false, null, null, i32 0, metadata !147, i32 1022} ; [ DW_TAG_subprogram ]
!412 = metadata !{i32 786453, i32 0, metadata !"", i32 0, i32 0, i64 0, i64 0, i64 0, i32 0, null, metadata !413, i32 0, i32 0} ; [ DW_TAG_subroutine_type ]
!413 = metadata !{metadata !414, metadata !390, metadata !257}
!414 = metadata !{i32 786434, null, metadata !"ap_concat_ref<24, ap_range_ref<24, false>, 24, ap_int_base<24, false, true> >", metadata !135, i32 688, i32 0, i32 0, i32 0, i32 4, null, null, i32 0} ; [ DW_TAG_class_type ]
!415 = metadata !{i32 786478, i32 0, metadata !382, metadata !"length", metadata !"length", metadata !"_ZNK12ap_range_refILi24ELb0EE6lengthEv", metadata !135, i32 1187, metadata !416, i1 false, i1 false, i32 0, i32 0, null, i32 256, i1 false, null, null, i32 0, metadata !147, i32 1187} ; [ DW_TAG_subprogram ]
!416 = metadata !{i32 786453, i32 0, metadata !"", i32 0, i32 0, i64 0, i64 0, i64 0, i32 0, null, metadata !417, i32 0, i32 0} ; [ DW_TAG_subroutine_type ]
!417 = metadata !{metadata !156, metadata !400}
!418 = metadata !{i32 786478, i32 0, metadata !382, metadata !"to_int", metadata !"to_int", metadata !"_ZNK12ap_range_refILi24ELb0EE6to_intEv", metadata !135, i32 1191, metadata !416, i1 false, i1 false, i32 0, i32 0, null, i32 256, i1 false, null, null, i32 0, metadata !147, i32 1191} ; [ DW_TAG_subprogram ]
!419 = metadata !{i32 786478, i32 0, metadata !382, metadata !"to_uint", metadata !"to_uint", metadata !"_ZNK12ap_range_refILi24ELb0EE7to_uintEv", metadata !135, i32 1194, metadata !420, i1 false, i1 false, i32 0, i32 0, null, i32 256, i1 false, null, null, i32 0, metadata !147, i32 1194} ; [ DW_TAG_subprogram ]
!420 = metadata !{i32 786453, i32 0, metadata !"", i32 0, i32 0, i64 0, i64 0, i64 0, i32 0, null, metadata !421, i32 0, i32 0} ; [ DW_TAG_subroutine_type ]
!421 = metadata !{metadata !202, metadata !400}
!422 = metadata !{i32 786478, i32 0, metadata !382, metadata !"to_long", metadata !"to_long", metadata !"_ZNK12ap_range_refILi24ELb0EE7to_longEv", metadata !135, i32 1197, metadata !423, i1 false, i1 false, i32 0, i32 0, null, i32 256, i1 false, null, null, i32 0, metadata !147, i32 1197} ; [ DW_TAG_subprogram ]
!423 = metadata !{i32 786453, i32 0, metadata !"", i32 0, i32 0, i64 0, i64 0, i64 0, i32 0, null, metadata !424, i32 0, i32 0} ; [ DW_TAG_subroutine_type ]
!424 = metadata !{metadata !206, metadata !400}
!425 = metadata !{i32 786478, i32 0, metadata !382, metadata !"to_ulong", metadata !"to_ulong", metadata !"_ZNK12ap_range_refILi24ELb0EE8to_ulongEv", metadata !135, i32 1200, metadata !426, i1 false, i1 false, i32 0, i32 0, null, i32 256, i1 false, null, null, i32 0, metadata !147, i32 1200} ; [ DW_TAG_subprogram ]
!426 = metadata !{i32 786453, i32 0, metadata !"", i32 0, i32 0, i64 0, i64 0, i64 0, i32 0, null, metadata !427, i32 0, i32 0} ; [ DW_TAG_subroutine_type ]
!427 = metadata !{metadata !210, metadata !400}
!428 = metadata !{i32 786478, i32 0, metadata !382, metadata !"to_int64", metadata !"to_int64", metadata !"_ZNK12ap_range_refILi24ELb0EE8to_int64Ev", metadata !135, i32 1203, metadata !429, i1 false, i1 false, i32 0, i32 0, null, i32 256, i1 false, null, null, i32 0, metadata !147, i32 1203} ; [ DW_TAG_subprogram ]
!429 = metadata !{i32 786453, i32 0, metadata !"", i32 0, i32 0, i64 0, i64 0, i64 0, i32 0, null, metadata !430, i32 0, i32 0} ; [ DW_TAG_subroutine_type ]
!430 = metadata !{metadata !214, metadata !400}
!431 = metadata !{i32 786478, i32 0, metadata !382, metadata !"to_uint64", metadata !"to_uint64", metadata !"_ZNK12ap_range_refILi24ELb0EE9to_uint64Ev", metadata !135, i32 1206, metadata !432, i1 false, i1 false, i32 0, i32 0, null, i32 256, i1 false, null, null, i32 0, metadata !147, i32 1206} ; [ DW_TAG_subprogram ]
!432 = metadata !{i32 786453, i32 0, metadata !"", i32 0, i32 0, i64 0, i64 0, i64 0, i32 0, null, metadata !433, i32 0, i32 0} ; [ DW_TAG_subroutine_type ]
!433 = metadata !{metadata !219, metadata !400}
!434 = metadata !{i32 786478, i32 0, metadata !382, metadata !"and_reduce", metadata !"and_reduce", metadata !"_ZNK12ap_range_refILi24ELb0EE10and_reduceEv", metadata !135, i32 1209, metadata !435, i1 false, i1 false, i32 0, i32 0, null, i32 256, i1 false, null, null, i32 0, metadata !147, i32 1209} ; [ DW_TAG_subprogram ]
!435 = metadata !{i32 786453, i32 0, metadata !"", i32 0, i32 0, i64 0, i64 0, i64 0, i32 0, null, metadata !436, i32 0, i32 0} ; [ DW_TAG_subroutine_type ]
!436 = metadata !{metadata !158, metadata !400}
!437 = metadata !{i32 786478, i32 0, metadata !382, metadata !"or_reduce", metadata !"or_reduce", metadata !"_ZNK12ap_range_refILi24ELb0EE9or_reduceEv", metadata !135, i32 1220, metadata !435, i1 false, i1 false, i32 0, i32 0, null, i32 256, i1 false, null, null, i32 0, metadata !147, i32 1220} ; [ DW_TAG_subprogram ]
!438 = metadata !{i32 786478, i32 0, metadata !382, metadata !"xor_reduce", metadata !"xor_reduce", metadata !"_ZNK12ap_range_refILi24ELb0EE10xor_reduceEv", metadata !135, i32 1231, metadata !435, i1 false, i1 false, i32 0, i32 0, null, i32 256, i1 false, null, null, i32 0, metadata !147, i32 1231} ; [ DW_TAG_subprogram ]
!439 = metadata !{i32 786478, i32 0, metadata !382, metadata !"~ap_range_ref", metadata !"~ap_range_ref", metadata !"", metadata !135, i32 925, metadata !440, i1 false, i1 false, i32 0, i32 0, null, i32 320, i1 false, null, null, i32 0, metadata !147, i32 925} ; [ DW_TAG_subprogram ]
!440 = metadata !{i32 786453, i32 0, metadata !"", i32 0, i32 0, i64 0, i64 0, i64 0, i32 0, null, metadata !441, i32 0, i32 0} ; [ DW_TAG_subroutine_type ]
!441 = metadata !{null, metadata !390}
!442 = metadata !{metadata !443, metadata !157}
!443 = metadata !{i32 786480, null, metadata !"_AP_W", metadata !156, i64 24, null, i32 0, i32 0} ; [ DW_TAG_template_value_parameter ]
!444 = metadata !{i32 786478, i32 0, metadata !134, metadata !"operator()", metadata !"operator()", metadata !"_ZN11ap_int_baseILi24ELb0ELb1EEclEii", metadata !135, i32 2068, metadata !380, i1 false, i1 false, i32 0, i32 0, null, i32 256, i1 false, null, null, i32 0, metadata !147, i32 2068} ; [ DW_TAG_subprogram ]
!445 = metadata !{i32 786478, i32 0, metadata !134, metadata !"range", metadata !"range", metadata !"_ZNK11ap_int_baseILi24ELb0ELb1EE5rangeEii", metadata !135, i32 2074, metadata !446, i1 false, i1 false, i32 0, i32 0, null, i32 256, i1 false, null, null, i32 0, metadata !147, i32 2074} ; [ DW_TAG_subprogram ]
!446 = metadata !{i32 786453, i32 0, metadata !"", i32 0, i32 0, i64 0, i64 0, i64 0, i32 0, null, metadata !447, i32 0, i32 0} ; [ DW_TAG_subroutine_type ]
!447 = metadata !{metadata !382, metadata !300, metadata !156, metadata !156}
!448 = metadata !{i32 786478, i32 0, metadata !134, metadata !"operator()", metadata !"operator()", metadata !"_ZNK11ap_int_baseILi24ELb0ELb1EEclEii", metadata !135, i32 2080, metadata !446, i1 false, i1 false, i32 0, i32 0, null, i32 256, i1 false, null, null, i32 0, metadata !147, i32 2080} ; [ DW_TAG_subprogram ]
!449 = metadata !{i32 786478, i32 0, metadata !134, metadata !"operator[]", metadata !"operator[]", metadata !"_ZN11ap_int_baseILi24ELb0ELb1EEixEi", metadata !135, i32 2099, metadata !450, i1 false, i1 false, i32 0, i32 0, null, i32 256, i1 false, null, null, i32 0, metadata !147, i32 2099} ; [ DW_TAG_subprogram ]
!450 = metadata !{i32 786453, i32 0, metadata !"", i32 0, i32 0, i64 0, i64 0, i64 0, i32 0, null, metadata !451, i32 0, i32 0} ; [ DW_TAG_subroutine_type ]
!451 = metadata !{metadata !452, metadata !162, metadata !156}
!452 = metadata !{i32 786434, null, metadata !"ap_bit_ref<24, false>", metadata !135, i32 1249, i32 0, i32 0, i32 0, i32 4, null, null, i32 0} ; [ DW_TAG_class_type ]
!453 = metadata !{i32 786478, i32 0, metadata !134, metadata !"operator[]", metadata !"operator[]", metadata !"_ZNK11ap_int_baseILi24ELb0ELb1EEixEi", metadata !135, i32 2113, metadata !351, i1 false, i1 false, i32 0, i32 0, null, i32 256, i1 false, null, null, i32 0, metadata !147, i32 2113} ; [ DW_TAG_subprogram ]
!454 = metadata !{i32 786478, i32 0, metadata !134, metadata !"bit", metadata !"bit", metadata !"_ZN11ap_int_baseILi24ELb0ELb1EE3bitEi", metadata !135, i32 2127, metadata !450, i1 false, i1 false, i32 0, i32 0, null, i32 256, i1 false, null, null, i32 0, metadata !147, i32 2127} ; [ DW_TAG_subprogram ]
!455 = metadata !{i32 786478, i32 0, metadata !134, metadata !"bit", metadata !"bit", metadata !"_ZNK11ap_int_baseILi24ELb0ELb1EE3bitEi", metadata !135, i32 2141, metadata !351, i1 false, i1 false, i32 0, i32 0, null, i32 256, i1 false, null, null, i32 0, metadata !147, i32 2141} ; [ DW_TAG_subprogram ]
!456 = metadata !{i32 786478, i32 0, metadata !134, metadata !"and_reduce", metadata !"and_reduce", metadata !"_ZN11ap_int_baseILi24ELb0ELb1EE10and_reduceEv", metadata !135, i32 2321, metadata !457, i1 false, i1 false, i32 0, i32 0, null, i32 256, i1 false, null, null, i32 0, metadata !147, i32 2321} ; [ DW_TAG_subprogram ]
!457 = metadata !{i32 786453, i32 0, metadata !"", i32 0, i32 0, i64 0, i64 0, i64 0, i32 0, null, metadata !458, i32 0, i32 0} ; [ DW_TAG_subroutine_type ]
!458 = metadata !{metadata !158, metadata !162}
!459 = metadata !{i32 786478, i32 0, metadata !134, metadata !"nand_reduce", metadata !"nand_reduce", metadata !"_ZN11ap_int_baseILi24ELb0ELb1EE11nand_reduceEv", metadata !135, i32 2324, metadata !457, i1 false, i1 false, i32 0, i32 0, null, i32 256, i1 false, null, null, i32 0, metadata !147, i32 2324} ; [ DW_TAG_subprogram ]
!460 = metadata !{i32 786478, i32 0, metadata !134, metadata !"or_reduce", metadata !"or_reduce", metadata !"_ZN11ap_int_baseILi24ELb0ELb1EE9or_reduceEv", metadata !135, i32 2327, metadata !457, i1 false, i1 false, i32 0, i32 0, null, i32 256, i1 false, null, null, i32 0, metadata !147, i32 2327} ; [ DW_TAG_subprogram ]
!461 = metadata !{i32 786478, i32 0, metadata !134, metadata !"nor_reduce", metadata !"nor_reduce", metadata !"_ZN11ap_int_baseILi24ELb0ELb1EE10nor_reduceEv", metadata !135, i32 2330, metadata !457, i1 false, i1 false, i32 0, i32 0, null, i32 256, i1 false, null, null, i32 0, metadata !147, i32 2330} ; [ DW_TAG_subprogram ]
!462 = metadata !{i32 786478, i32 0, metadata !134, metadata !"xor_reduce", metadata !"xor_reduce", metadata !"_ZN11ap_int_baseILi24ELb0ELb1EE10xor_reduceEv", metadata !135, i32 2333, metadata !457, i1 false, i1 false, i32 0, i32 0, null, i32 256, i1 false, null, null, i32 0, metadata !147, i32 2333} ; [ DW_TAG_subprogram ]
!463 = metadata !{i32 786478, i32 0, metadata !134, metadata !"xnor_reduce", metadata !"xnor_reduce", metadata !"_ZN11ap_int_baseILi24ELb0ELb1EE11xnor_reduceEv", metadata !135, i32 2336, metadata !457, i1 false, i1 false, i32 0, i32 0, null, i32 256, i1 false, null, null, i32 0, metadata !147, i32 2336} ; [ DW_TAG_subprogram ]
!464 = metadata !{i32 786478, i32 0, metadata !134, metadata !"and_reduce", metadata !"and_reduce", metadata !"_ZNK11ap_int_baseILi24ELb0ELb1EE10and_reduceEv", metadata !135, i32 2340, metadata !302, i1 false, i1 false, i32 0, i32 0, null, i32 256, i1 false, null, null, i32 0, metadata !147, i32 2340} ; [ DW_TAG_subprogram ]
!465 = metadata !{i32 786478, i32 0, metadata !134, metadata !"nand_reduce", metadata !"nand_reduce", metadata !"_ZNK11ap_int_baseILi24ELb0ELb1EE11nand_reduceEv", metadata !135, i32 2343, metadata !302, i1 false, i1 false, i32 0, i32 0, null, i32 256, i1 false, null, null, i32 0, metadata !147, i32 2343} ; [ DW_TAG_subprogram ]
!466 = metadata !{i32 786478, i32 0, metadata !134, metadata !"or_reduce", metadata !"or_reduce", metadata !"_ZNK11ap_int_baseILi24ELb0ELb1EE9or_reduceEv", metadata !135, i32 2346, metadata !302, i1 false, i1 false, i32 0, i32 0, null, i32 256, i1 false, null, null, i32 0, metadata !147, i32 2346} ; [ DW_TAG_subprogram ]
!467 = metadata !{i32 786478, i32 0, metadata !134, metadata !"nor_reduce", metadata !"nor_reduce", metadata !"_ZNK11ap_int_baseILi24ELb0ELb1EE10nor_reduceEv", metadata !135, i32 2349, metadata !302, i1 false, i1 false, i32 0, i32 0, null, i32 256, i1 false, null, null, i32 0, metadata !147, i32 2349} ; [ DW_TAG_subprogram ]
!468 = metadata !{i32 786478, i32 0, metadata !134, metadata !"xor_reduce", metadata !"xor_reduce", metadata !"_ZNK11ap_int_baseILi24ELb0ELb1EE10xor_reduceEv", metadata !135, i32 2352, metadata !302, i1 false, i1 false, i32 0, i32 0, null, i32 256, i1 false, null, null, i32 0, metadata !147, i32 2352} ; [ DW_TAG_subprogram ]
!469 = metadata !{i32 786478, i32 0, metadata !134, metadata !"xnor_reduce", metadata !"xnor_reduce", metadata !"_ZNK11ap_int_baseILi24ELb0ELb1EE11xnor_reduceEv", metadata !135, i32 2355, metadata !302, i1 false, i1 false, i32 0, i32 0, null, i32 256, i1 false, null, null, i32 0, metadata !147, i32 2355} ; [ DW_TAG_subprogram ]
!470 = metadata !{i32 786478, i32 0, metadata !134, metadata !"to_string", metadata !"to_string", metadata !"_ZNK11ap_int_baseILi24ELb0ELb1EE9to_stringEPci8BaseModeb", metadata !135, i32 2362, metadata !471, i1 false, i1 false, i32 0, i32 0, null, i32 256, i1 false, null, null, i32 0, metadata !147, i32 2362} ; [ DW_TAG_subprogram ]
!471 = metadata !{i32 786453, i32 0, metadata !"", i32 0, i32 0, i64 0, i64 0, i64 0, i32 0, null, metadata !472, i32 0, i32 0} ; [ DW_TAG_subroutine_type ]
!472 = metadata !{null, metadata !300, metadata !473, metadata !156, metadata !474, metadata !158}
!473 = metadata !{i32 786447, null, metadata !"", null, i32 0, i64 64, i64 64, i64 0, i32 0, metadata !239} ; [ DW_TAG_pointer_type ]
!474 = metadata !{i32 786436, null, metadata !"BaseMode", metadata !135, i32 603, i64 5, i64 8, i32 0, i32 0, null, metadata !475, i32 0, i32 0} ; [ DW_TAG_enumeration_type ]
!475 = metadata !{metadata !476, metadata !477, metadata !478, metadata !479}
!476 = metadata !{i32 786472, metadata !"SC_BIN", i64 2} ; [ DW_TAG_enumerator ]
!477 = metadata !{i32 786472, metadata !"SC_OCT", i64 8} ; [ DW_TAG_enumerator ]
!478 = metadata !{i32 786472, metadata !"SC_DEC", i64 10} ; [ DW_TAG_enumerator ]
!479 = metadata !{i32 786472, metadata !"SC_HEX", i64 16} ; [ DW_TAG_enumerator ]
!480 = metadata !{i32 786478, i32 0, metadata !134, metadata !"to_string", metadata !"to_string", metadata !"_ZNK11ap_int_baseILi24ELb0ELb1EE9to_stringE8BaseModeb", metadata !135, i32 2389, metadata !481, i1 false, i1 false, i32 0, i32 0, null, i32 256, i1 false, null, null, i32 0, metadata !147, i32 2389} ; [ DW_TAG_subprogram ]
!481 = metadata !{i32 786453, i32 0, metadata !"", i32 0, i32 0, i64 0, i64 0, i64 0, i32 0, null, metadata !482, i32 0, i32 0} ; [ DW_TAG_subroutine_type ]
!482 = metadata !{metadata !473, metadata !300, metadata !474, metadata !158}
!483 = metadata !{i32 786478, i32 0, metadata !134, metadata !"to_string", metadata !"to_string", metadata !"_ZNK11ap_int_baseILi24ELb0ELb1EE9to_stringEab", metadata !135, i32 2393, metadata !484, i1 false, i1 false, i32 0, i32 0, null, i32 256, i1 false, null, null, i32 0, metadata !147, i32 2393} ; [ DW_TAG_subprogram ]
!484 = metadata !{i32 786453, i32 0, metadata !"", i32 0, i32 0, i64 0, i64 0, i64 0, i32 0, null, metadata !485, i32 0, i32 0} ; [ DW_TAG_subroutine_type ]
!485 = metadata !{metadata !473, metadata !300, metadata !183, metadata !158}
!486 = metadata !{metadata !443, metadata !157, metadata !487}
!487 = metadata !{i32 786480, null, metadata !"_AP_C", metadata !158, i64 1, null, i32 0, i32 0} ; [ DW_TAG_template_value_parameter ]
!488 = metadata !{i32 786478, i32 0, metadata !130, metadata !"ap_uint", metadata !"ap_uint", metadata !"", metadata !131, i32 186, metadata !489, i1 false, i1 false, i32 0, i32 0, null, i32 256, i1 false, null, null, i32 0, metadata !147, i32 186} ; [ DW_TAG_subprogram ]
!489 = metadata !{i32 786453, i32 0, metadata !"", i32 0, i32 0, i64 0, i64 0, i64 0, i32 0, null, metadata !490, i32 0, i32 0} ; [ DW_TAG_subroutine_type ]
!490 = metadata !{null, metadata !491}
!491 = metadata !{i32 786447, i32 0, metadata !"", i32 0, i32 0, i64 64, i64 64, i64 0, i32 64, metadata !130} ; [ DW_TAG_pointer_type ]
!492 = metadata !{i32 786478, i32 0, metadata !130, metadata !"ap_uint", metadata !"ap_uint", metadata !"", metadata !131, i32 248, metadata !493, i1 false, i1 false, i32 0, i32 0, null, i32 256, i1 false, null, null, i32 0, metadata !147, i32 248} ; [ DW_TAG_subprogram ]
!493 = metadata !{i32 786453, i32 0, metadata !"", i32 0, i32 0, i64 0, i64 0, i64 0, i32 0, null, metadata !494, i32 0, i32 0} ; [ DW_TAG_subroutine_type ]
!494 = metadata !{null, metadata !491, metadata !158}
!495 = metadata !{i32 786478, i32 0, metadata !130, metadata !"ap_uint", metadata !"ap_uint", metadata !"", metadata !131, i32 249, metadata !496, i1 false, i1 false, i32 0, i32 0, null, i32 256, i1 false, null, null, i32 0, metadata !147, i32 249} ; [ DW_TAG_subprogram ]
!496 = metadata !{i32 786453, i32 0, metadata !"", i32 0, i32 0, i64 0, i64 0, i64 0, i32 0, null, metadata !497, i32 0, i32 0} ; [ DW_TAG_subroutine_type ]
!497 = metadata !{null, metadata !491, metadata !183}
!498 = metadata !{i32 786478, i32 0, metadata !130, metadata !"ap_uint", metadata !"ap_uint", metadata !"", metadata !131, i32 250, metadata !499, i1 false, i1 false, i32 0, i32 0, null, i32 256, i1 false, null, null, i32 0, metadata !147, i32 250} ; [ DW_TAG_subprogram ]
!499 = metadata !{i32 786453, i32 0, metadata !"", i32 0, i32 0, i64 0, i64 0, i64 0, i32 0, null, metadata !500, i32 0, i32 0} ; [ DW_TAG_subroutine_type ]
!500 = metadata !{null, metadata !491, metadata !187}
!501 = metadata !{i32 786478, i32 0, metadata !130, metadata !"ap_uint", metadata !"ap_uint", metadata !"", metadata !131, i32 251, metadata !502, i1 false, i1 false, i32 0, i32 0, null, i32 256, i1 false, null, null, i32 0, metadata !147, i32 251} ; [ DW_TAG_subprogram ]
!502 = metadata !{i32 786453, i32 0, metadata !"", i32 0, i32 0, i64 0, i64 0, i64 0, i32 0, null, metadata !503, i32 0, i32 0} ; [ DW_TAG_subroutine_type ]
!503 = metadata !{null, metadata !491, metadata !191}
!504 = metadata !{i32 786478, i32 0, metadata !130, metadata !"ap_uint", metadata !"ap_uint", metadata !"", metadata !131, i32 252, metadata !505, i1 false, i1 false, i32 0, i32 0, null, i32 256, i1 false, null, null, i32 0, metadata !147, i32 252} ; [ DW_TAG_subprogram ]
!505 = metadata !{i32 786453, i32 0, metadata !"", i32 0, i32 0, i64 0, i64 0, i64 0, i32 0, null, metadata !506, i32 0, i32 0} ; [ DW_TAG_subroutine_type ]
!506 = metadata !{null, metadata !491, metadata !195}
!507 = metadata !{i32 786478, i32 0, metadata !130, metadata !"ap_uint", metadata !"ap_uint", metadata !"", metadata !131, i32 253, metadata !508, i1 false, i1 false, i32 0, i32 0, null, i32 256, i1 false, null, null, i32 0, metadata !147, i32 253} ; [ DW_TAG_subprogram ]
!508 = metadata !{i32 786453, i32 0, metadata !"", i32 0, i32 0, i64 0, i64 0, i64 0, i32 0, null, metadata !509, i32 0, i32 0} ; [ DW_TAG_subroutine_type ]
!509 = metadata !{null, metadata !491, metadata !156}
!510 = metadata !{i32 786478, i32 0, metadata !130, metadata !"ap_uint", metadata !"ap_uint", metadata !"", metadata !131, i32 254, metadata !511, i1 false, i1 false, i32 0, i32 0, null, i32 256, i1 false, null, null, i32 0, metadata !147, i32 254} ; [ DW_TAG_subprogram ]
!511 = metadata !{i32 786453, i32 0, metadata !"", i32 0, i32 0, i64 0, i64 0, i64 0, i32 0, null, metadata !512, i32 0, i32 0} ; [ DW_TAG_subroutine_type ]
!512 = metadata !{null, metadata !491, metadata !202}
!513 = metadata !{i32 786478, i32 0, metadata !130, metadata !"ap_uint", metadata !"ap_uint", metadata !"", metadata !131, i32 255, metadata !514, i1 false, i1 false, i32 0, i32 0, null, i32 256, i1 false, null, null, i32 0, metadata !147, i32 255} ; [ DW_TAG_subprogram ]
!514 = metadata !{i32 786453, i32 0, metadata !"", i32 0, i32 0, i64 0, i64 0, i64 0, i32 0, null, metadata !515, i32 0, i32 0} ; [ DW_TAG_subroutine_type ]
!515 = metadata !{null, metadata !491, metadata !206}
!516 = metadata !{i32 786478, i32 0, metadata !130, metadata !"ap_uint", metadata !"ap_uint", metadata !"", metadata !131, i32 256, metadata !517, i1 false, i1 false, i32 0, i32 0, null, i32 256, i1 false, null, null, i32 0, metadata !147, i32 256} ; [ DW_TAG_subprogram ]
!517 = metadata !{i32 786453, i32 0, metadata !"", i32 0, i32 0, i64 0, i64 0, i64 0, i32 0, null, metadata !518, i32 0, i32 0} ; [ DW_TAG_subroutine_type ]
!518 = metadata !{null, metadata !491, metadata !210}
!519 = metadata !{i32 786478, i32 0, metadata !130, metadata !"ap_uint", metadata !"ap_uint", metadata !"", metadata !131, i32 257, metadata !520, i1 false, i1 false, i32 0, i32 0, null, i32 256, i1 false, null, null, i32 0, metadata !147, i32 257} ; [ DW_TAG_subprogram ]
!520 = metadata !{i32 786453, i32 0, metadata !"", i32 0, i32 0, i64 0, i64 0, i64 0, i32 0, null, metadata !521, i32 0, i32 0} ; [ DW_TAG_subroutine_type ]
!521 = metadata !{null, metadata !491, metadata !220}
!522 = metadata !{i32 786478, i32 0, metadata !130, metadata !"ap_uint", metadata !"ap_uint", metadata !"", metadata !131, i32 258, metadata !523, i1 false, i1 false, i32 0, i32 0, null, i32 256, i1 false, null, null, i32 0, metadata !147, i32 258} ; [ DW_TAG_subprogram ]
!523 = metadata !{i32 786453, i32 0, metadata !"", i32 0, i32 0, i64 0, i64 0, i64 0, i32 0, null, metadata !524, i32 0, i32 0} ; [ DW_TAG_subroutine_type ]
!524 = metadata !{null, metadata !491, metadata !215}
!525 = metadata !{i32 786478, i32 0, metadata !130, metadata !"ap_uint", metadata !"ap_uint", metadata !"", metadata !131, i32 259, metadata !526, i1 false, i1 false, i32 0, i32 0, null, i32 256, i1 false, null, null, i32 0, metadata !147, i32 259} ; [ DW_TAG_subprogram ]
!526 = metadata !{i32 786453, i32 0, metadata !"", i32 0, i32 0, i64 0, i64 0, i64 0, i32 0, null, metadata !527, i32 0, i32 0} ; [ DW_TAG_subroutine_type ]
!527 = metadata !{null, metadata !491, metadata !224}
!528 = metadata !{i32 786478, i32 0, metadata !130, metadata !"ap_uint", metadata !"ap_uint", metadata !"", metadata !131, i32 260, metadata !529, i1 false, i1 false, i32 0, i32 0, null, i32 256, i1 false, null, null, i32 0, metadata !147, i32 260} ; [ DW_TAG_subprogram ]
!529 = metadata !{i32 786453, i32 0, metadata !"", i32 0, i32 0, i64 0, i64 0, i64 0, i32 0, null, metadata !530, i32 0, i32 0} ; [ DW_TAG_subroutine_type ]
!530 = metadata !{null, metadata !491, metadata !229}
!531 = metadata !{i32 786478, i32 0, metadata !130, metadata !"ap_uint", metadata !"ap_uint", metadata !"", metadata !131, i32 261, metadata !532, i1 false, i1 false, i32 0, i32 0, null, i32 256, i1 false, null, null, i32 0, metadata !147, i32 261} ; [ DW_TAG_subprogram ]
!532 = metadata !{i32 786453, i32 0, metadata !"", i32 0, i32 0, i64 0, i64 0, i64 0, i32 0, null, metadata !533, i32 0, i32 0} ; [ DW_TAG_subroutine_type ]
!533 = metadata !{null, metadata !491, metadata !233}
!534 = metadata !{i32 786478, i32 0, metadata !130, metadata !"ap_uint", metadata !"ap_uint", metadata !"", metadata !131, i32 263, metadata !535, i1 false, i1 false, i32 0, i32 0, null, i32 256, i1 false, null, null, i32 0, metadata !147, i32 263} ; [ DW_TAG_subprogram ]
!535 = metadata !{i32 786453, i32 0, metadata !"", i32 0, i32 0, i64 0, i64 0, i64 0, i32 0, null, metadata !536, i32 0, i32 0} ; [ DW_TAG_subroutine_type ]
!536 = metadata !{null, metadata !491, metadata !237}
!537 = metadata !{i32 786478, i32 0, metadata !130, metadata !"ap_uint", metadata !"ap_uint", metadata !"", metadata !131, i32 264, metadata !538, i1 false, i1 false, i32 0, i32 0, null, i32 256, i1 false, null, null, i32 0, metadata !147, i32 264} ; [ DW_TAG_subprogram ]
!538 = metadata !{i32 786453, i32 0, metadata !"", i32 0, i32 0, i64 0, i64 0, i64 0, i32 0, null, metadata !539, i32 0, i32 0} ; [ DW_TAG_subroutine_type ]
!539 = metadata !{null, metadata !491, metadata !237, metadata !183}
!540 = metadata !{i32 786478, i32 0, metadata !130, metadata !"operator=", metadata !"operator=", metadata !"_ZNV7ap_uintILi24EEaSERKS0_", metadata !131, i32 267, metadata !541, i1 false, i1 false, i32 0, i32 0, null, i32 256, i1 false, null, null, i32 0, metadata !147, i32 267} ; [ DW_TAG_subprogram ]
!541 = metadata !{i32 786453, i32 0, metadata !"", i32 0, i32 0, i64 0, i64 0, i64 0, i32 0, null, metadata !542, i32 0, i32 0} ; [ DW_TAG_subroutine_type ]
!542 = metadata !{null, metadata !543, metadata !545}
!543 = metadata !{i32 786447, i32 0, metadata !"", i32 0, i32 0, i64 64, i64 64, i64 0, i32 64, metadata !544} ; [ DW_TAG_pointer_type ]
!544 = metadata !{i32 786485, null, metadata !"", null, i32 0, i64 0, i64 0, i64 0, i32 0, metadata !130} ; [ DW_TAG_volatile_type ]
!545 = metadata !{i32 786448, null, null, null, i32 0, i64 0, i64 0, i64 0, i32 0, metadata !546} ; [ DW_TAG_reference_type ]
!546 = metadata !{i32 786470, null, metadata !"", null, i32 0, i64 0, i64 0, i64 0, i32 0, metadata !130} ; [ DW_TAG_const_type ]
!547 = metadata !{i32 786478, i32 0, metadata !130, metadata !"operator=", metadata !"operator=", metadata !"_ZNV7ap_uintILi24EEaSERVKS0_", metadata !131, i32 271, metadata !548, i1 false, i1 false, i32 0, i32 0, null, i32 256, i1 false, null, null, i32 0, metadata !147, i32 271} ; [ DW_TAG_subprogram ]
!548 = metadata !{i32 786453, i32 0, metadata !"", i32 0, i32 0, i64 0, i64 0, i64 0, i32 0, null, metadata !549, i32 0, i32 0} ; [ DW_TAG_subroutine_type ]
!549 = metadata !{null, metadata !543, metadata !550}
!550 = metadata !{i32 786448, null, null, null, i32 0, i64 0, i64 0, i64 0, i32 0, metadata !551} ; [ DW_TAG_reference_type ]
!551 = metadata !{i32 786470, null, metadata !"", null, i32 0, i64 0, i64 0, i64 0, i32 0, metadata !544} ; [ DW_TAG_const_type ]
!552 = metadata !{i32 786478, i32 0, metadata !130, metadata !"operator=", metadata !"operator=", metadata !"_ZN7ap_uintILi24EEaSERVKS0_", metadata !131, i32 275, metadata !553, i1 false, i1 false, i32 0, i32 0, null, i32 256, i1 false, null, null, i32 0, metadata !147, i32 275} ; [ DW_TAG_subprogram ]
!553 = metadata !{i32 786453, i32 0, metadata !"", i32 0, i32 0, i64 0, i64 0, i64 0, i32 0, null, metadata !554, i32 0, i32 0} ; [ DW_TAG_subroutine_type ]
!554 = metadata !{metadata !555, metadata !491, metadata !550}
!555 = metadata !{i32 786448, null, null, null, i32 0, i64 0, i64 0, i64 0, i32 0, metadata !130} ; [ DW_TAG_reference_type ]
!556 = metadata !{i32 786478, i32 0, metadata !130, metadata !"operator=", metadata !"operator=", metadata !"_ZN7ap_uintILi24EEaSERKS0_", metadata !131, i32 280, metadata !557, i1 false, i1 false, i32 0, i32 0, null, i32 256, i1 false, null, null, i32 0, metadata !147, i32 280} ; [ DW_TAG_subprogram ]
!557 = metadata !{i32 786453, i32 0, metadata !"", i32 0, i32 0, i64 0, i64 0, i64 0, i32 0, null, metadata !558, i32 0, i32 0} ; [ DW_TAG_subroutine_type ]
!558 = metadata !{metadata !555, metadata !491, metadata !545}
!559 = metadata !{metadata !443}
!560 = metadata !{i32 786445, metadata !126, metadata !"keep", metadata !127, i32 102, i64 8, i64 8, i64 32, i32 0, metadata !561} ; [ DW_TAG_member ]
!561 = metadata !{i32 786434, null, metadata !"ap_uint<3>", metadata !131, i32 183, i64 8, i64 8, i32 0, i32 0, null, metadata !562, i32 0, null, metadata !2778} ; [ DW_TAG_class_type ]
!562 = metadata !{metadata !563, metadata !2074, metadata !2078, metadata !2695, metadata !2701, metadata !2704, metadata !2710, metadata !2713, metadata !2716, metadata !2719, metadata !2722, metadata !2725, metadata !2728, metadata !2731, metadata !2734, metadata !2737, metadata !2740, metadata !2743, metadata !2746, metadata !2749, metadata !2752, metadata !2755, metadata !2758, metadata !2761, metadata !2764, metadata !2768, metadata !2771, metadata !2775}
!563 = metadata !{i32 786460, metadata !561, null, metadata !131, i32 0, i64 0, i64 0, i64 0, i32 0, metadata !564} ; [ DW_TAG_inheritance ]
!564 = metadata !{i32 786434, null, metadata !"ap_int_base<3, false, true>", metadata !135, i32 1453, i64 8, i64 8, i32 0, i32 0, null, metadata !565, i32 0, null, metadata !2073} ; [ DW_TAG_class_type ]
!565 = metadata !{metadata !566, metadata !575, metadata !579, metadata !586, metadata !592, metadata !595, metadata !598, metadata !601, metadata !604, metadata !607, metadata !610, metadata !613, metadata !616, metadata !619, metadata !622, metadata !625, metadata !628, metadata !631, metadata !634, metadata !637, metadata !640, metadata !644, metadata !647, metadata !650, metadata !651, metadata !655, metadata !658, metadata !661, metadata !664, metadata !667, metadata !670, metadata !673, metadata !676, metadata !679, metadata !682, metadata !685, metadata !688, metadata !697, metadata !700, metadata !703, metadata !706, metadata !709, metadata !712, metadata !715, metadata !718, metadata !721, metadata !724, metadata !727, metadata !730, metadata !733, metadata !734, metadata !738, metadata !741, metadata !742, metadata !743, metadata !744, metadata !745, metadata !746, metadata !749, metadata !750, metadata !753, metadata !754, metadata !755, metadata !756, metadata !757, metadata !758, metadata !761, metadata !762, metadata !763, metadata !766, metadata !767, metadata !770, metadata !771, metadata !1278, metadata !2006, metadata !2007, metadata !2010, metadata !2011, metadata !2047, metadata !2048, metadata !2049, metadata !2050, metadata !2053, metadata !2054, metadata !2055, metadata !2056, metadata !2057, metadata !2058, metadata !2059, metadata !2060, metadata !2061, metadata !2062, metadata !2063, metadata !2064, metadata !2067, metadata !2070}
!566 = metadata !{i32 786460, metadata !564, null, metadata !135, i32 0, i64 0, i64 0, i64 0, i32 0, metadata !567} ; [ DW_TAG_inheritance ]
!567 = metadata !{i32 786434, null, metadata !"ssdm_int<3 + 1024 * 0, false>", metadata !139, i32 5, i64 8, i64 8, i32 0, i32 0, null, metadata !568, i32 0, null, metadata !298} ; [ DW_TAG_class_type ]
!568 = metadata !{metadata !569, metadata !571}
!569 = metadata !{i32 786445, metadata !567, metadata !"V", metadata !139, i32 5, i64 3, i64 4, i64 0, i32 0, metadata !570} ; [ DW_TAG_member ]
!570 = metadata !{i32 786468, null, metadata !"uint3", null, i32 0, i64 3, i64 4, i64 0, i32 0, i32 7} ; [ DW_TAG_base_type ]
!571 = metadata !{i32 786478, i32 0, metadata !567, metadata !"ssdm_int", metadata !"ssdm_int", metadata !"", metadata !139, i32 5, metadata !572, i1 false, i1 false, i32 0, i32 0, null, i32 256, i1 false, null, null, i32 0, metadata !147, i32 5} ; [ DW_TAG_subprogram ]
!572 = metadata !{i32 786453, i32 0, metadata !"", i32 0, i32 0, i64 0, i64 0, i64 0, i32 0, null, metadata !573, i32 0, i32 0} ; [ DW_TAG_subroutine_type ]
!573 = metadata !{null, metadata !574}
!574 = metadata !{i32 786447, i32 0, metadata !"", i32 0, i32 0, i64 64, i64 64, i64 0, i32 64, metadata !567} ; [ DW_TAG_pointer_type ]
!575 = metadata !{i32 786478, i32 0, metadata !564, metadata !"ap_int_base", metadata !"ap_int_base", metadata !"", metadata !135, i32 1494, metadata !576, i1 false, i1 false, i32 0, i32 0, null, i32 256, i1 false, null, null, i32 0, metadata !147, i32 1494} ; [ DW_TAG_subprogram ]
!576 = metadata !{i32 786453, i32 0, metadata !"", i32 0, i32 0, i64 0, i64 0, i64 0, i32 0, null, metadata !577, i32 0, i32 0} ; [ DW_TAG_subroutine_type ]
!577 = metadata !{null, metadata !578}
!578 = metadata !{i32 786447, i32 0, metadata !"", i32 0, i32 0, i64 64, i64 64, i64 0, i32 64, metadata !564} ; [ DW_TAG_pointer_type ]
!579 = metadata !{i32 786478, i32 0, metadata !564, metadata !"ap_int_base<3, false>", metadata !"ap_int_base<3, false>", metadata !"", metadata !135, i32 1506, metadata !580, i1 false, i1 false, i32 0, i32 0, null, i32 256, i1 false, null, metadata !584, i32 0, metadata !147, i32 1506} ; [ DW_TAG_subprogram ]
!580 = metadata !{i32 786453, i32 0, metadata !"", i32 0, i32 0, i64 0, i64 0, i64 0, i32 0, null, metadata !581, i32 0, i32 0} ; [ DW_TAG_subroutine_type ]
!581 = metadata !{null, metadata !578, metadata !582}
!582 = metadata !{i32 786448, null, null, null, i32 0, i64 0, i64 0, i64 0, i32 0, metadata !583} ; [ DW_TAG_reference_type ]
!583 = metadata !{i32 786470, null, metadata !"", null, i32 0, i64 0, i64 0, i64 0, i32 0, metadata !564} ; [ DW_TAG_const_type ]
!584 = metadata !{metadata !585, metadata !170}
!585 = metadata !{i32 786480, null, metadata !"_AP_W2", metadata !156, i64 3, null, i32 0, i32 0} ; [ DW_TAG_template_value_parameter ]
!586 = metadata !{i32 786478, i32 0, metadata !564, metadata !"ap_int_base<3, false>", metadata !"ap_int_base<3, false>", metadata !"", metadata !135, i32 1509, metadata !587, i1 false, i1 false, i32 0, i32 0, null, i32 256, i1 false, null, metadata !584, i32 0, metadata !147, i32 1509} ; [ DW_TAG_subprogram ]
!587 = metadata !{i32 786453, i32 0, metadata !"", i32 0, i32 0, i64 0, i64 0, i64 0, i32 0, null, metadata !588, i32 0, i32 0} ; [ DW_TAG_subroutine_type ]
!588 = metadata !{null, metadata !578, metadata !589}
!589 = metadata !{i32 786448, null, null, null, i32 0, i64 0, i64 0, i64 0, i32 0, metadata !590} ; [ DW_TAG_reference_type ]
!590 = metadata !{i32 786470, null, metadata !"", null, i32 0, i64 0, i64 0, i64 0, i32 0, metadata !591} ; [ DW_TAG_const_type ]
!591 = metadata !{i32 786485, null, metadata !"", null, i32 0, i64 0, i64 0, i64 0, i32 0, metadata !564} ; [ DW_TAG_volatile_type ]
!592 = metadata !{i32 786478, i32 0, metadata !564, metadata !"ap_int_base", metadata !"ap_int_base", metadata !"", metadata !135, i32 1516, metadata !593, i1 false, i1 false, i32 0, i32 0, null, i32 384, i1 false, null, null, i32 0, metadata !147, i32 1516} ; [ DW_TAG_subprogram ]
!593 = metadata !{i32 786453, i32 0, metadata !"", i32 0, i32 0, i64 0, i64 0, i64 0, i32 0, null, metadata !594, i32 0, i32 0} ; [ DW_TAG_subroutine_type ]
!594 = metadata !{null, metadata !578, metadata !158}
!595 = metadata !{i32 786478, i32 0, metadata !564, metadata !"ap_int_base", metadata !"ap_int_base", metadata !"", metadata !135, i32 1517, metadata !596, i1 false, i1 false, i32 0, i32 0, null, i32 384, i1 false, null, null, i32 0, metadata !147, i32 1517} ; [ DW_TAG_subprogram ]
!596 = metadata !{i32 786453, i32 0, metadata !"", i32 0, i32 0, i64 0, i64 0, i64 0, i32 0, null, metadata !597, i32 0, i32 0} ; [ DW_TAG_subroutine_type ]
!597 = metadata !{null, metadata !578, metadata !183}
!598 = metadata !{i32 786478, i32 0, metadata !564, metadata !"ap_int_base", metadata !"ap_int_base", metadata !"", metadata !135, i32 1518, metadata !599, i1 false, i1 false, i32 0, i32 0, null, i32 384, i1 false, null, null, i32 0, metadata !147, i32 1518} ; [ DW_TAG_subprogram ]
!599 = metadata !{i32 786453, i32 0, metadata !"", i32 0, i32 0, i64 0, i64 0, i64 0, i32 0, null, metadata !600, i32 0, i32 0} ; [ DW_TAG_subroutine_type ]
!600 = metadata !{null, metadata !578, metadata !187}
!601 = metadata !{i32 786478, i32 0, metadata !564, metadata !"ap_int_base", metadata !"ap_int_base", metadata !"", metadata !135, i32 1519, metadata !602, i1 false, i1 false, i32 0, i32 0, null, i32 384, i1 false, null, null, i32 0, metadata !147, i32 1519} ; [ DW_TAG_subprogram ]
!602 = metadata !{i32 786453, i32 0, metadata !"", i32 0, i32 0, i64 0, i64 0, i64 0, i32 0, null, metadata !603, i32 0, i32 0} ; [ DW_TAG_subroutine_type ]
!603 = metadata !{null, metadata !578, metadata !191}
!604 = metadata !{i32 786478, i32 0, metadata !564, metadata !"ap_int_base", metadata !"ap_int_base", metadata !"", metadata !135, i32 1520, metadata !605, i1 false, i1 false, i32 0, i32 0, null, i32 384, i1 false, null, null, i32 0, metadata !147, i32 1520} ; [ DW_TAG_subprogram ]
!605 = metadata !{i32 786453, i32 0, metadata !"", i32 0, i32 0, i64 0, i64 0, i64 0, i32 0, null, metadata !606, i32 0, i32 0} ; [ DW_TAG_subroutine_type ]
!606 = metadata !{null, metadata !578, metadata !195}
!607 = metadata !{i32 786478, i32 0, metadata !564, metadata !"ap_int_base", metadata !"ap_int_base", metadata !"", metadata !135, i32 1521, metadata !608, i1 false, i1 false, i32 0, i32 0, null, i32 384, i1 false, null, null, i32 0, metadata !147, i32 1521} ; [ DW_TAG_subprogram ]
!608 = metadata !{i32 786453, i32 0, metadata !"", i32 0, i32 0, i64 0, i64 0, i64 0, i32 0, null, metadata !609, i32 0, i32 0} ; [ DW_TAG_subroutine_type ]
!609 = metadata !{null, metadata !578, metadata !156}
!610 = metadata !{i32 786478, i32 0, metadata !564, metadata !"ap_int_base", metadata !"ap_int_base", metadata !"", metadata !135, i32 1522, metadata !611, i1 false, i1 false, i32 0, i32 0, null, i32 384, i1 false, null, null, i32 0, metadata !147, i32 1522} ; [ DW_TAG_subprogram ]
!611 = metadata !{i32 786453, i32 0, metadata !"", i32 0, i32 0, i64 0, i64 0, i64 0, i32 0, null, metadata !612, i32 0, i32 0} ; [ DW_TAG_subroutine_type ]
!612 = metadata !{null, metadata !578, metadata !202}
!613 = metadata !{i32 786478, i32 0, metadata !564, metadata !"ap_int_base", metadata !"ap_int_base", metadata !"", metadata !135, i32 1523, metadata !614, i1 false, i1 false, i32 0, i32 0, null, i32 384, i1 false, null, null, i32 0, metadata !147, i32 1523} ; [ DW_TAG_subprogram ]
!614 = metadata !{i32 786453, i32 0, metadata !"", i32 0, i32 0, i64 0, i64 0, i64 0, i32 0, null, metadata !615, i32 0, i32 0} ; [ DW_TAG_subroutine_type ]
!615 = metadata !{null, metadata !578, metadata !206}
!616 = metadata !{i32 786478, i32 0, metadata !564, metadata !"ap_int_base", metadata !"ap_int_base", metadata !"", metadata !135, i32 1524, metadata !617, i1 false, i1 false, i32 0, i32 0, null, i32 384, i1 false, null, null, i32 0, metadata !147, i32 1524} ; [ DW_TAG_subprogram ]
!617 = metadata !{i32 786453, i32 0, metadata !"", i32 0, i32 0, i64 0, i64 0, i64 0, i32 0, null, metadata !618, i32 0, i32 0} ; [ DW_TAG_subroutine_type ]
!618 = metadata !{null, metadata !578, metadata !210}
!619 = metadata !{i32 786478, i32 0, metadata !564, metadata !"ap_int_base", metadata !"ap_int_base", metadata !"", metadata !135, i32 1525, metadata !620, i1 false, i1 false, i32 0, i32 0, null, i32 384, i1 false, null, null, i32 0, metadata !147, i32 1525} ; [ DW_TAG_subprogram ]
!620 = metadata !{i32 786453, i32 0, metadata !"", i32 0, i32 0, i64 0, i64 0, i64 0, i32 0, null, metadata !621, i32 0, i32 0} ; [ DW_TAG_subroutine_type ]
!621 = metadata !{null, metadata !578, metadata !214}
!622 = metadata !{i32 786478, i32 0, metadata !564, metadata !"ap_int_base", metadata !"ap_int_base", metadata !"", metadata !135, i32 1526, metadata !623, i1 false, i1 false, i32 0, i32 0, null, i32 384, i1 false, null, null, i32 0, metadata !147, i32 1526} ; [ DW_TAG_subprogram ]
!623 = metadata !{i32 786453, i32 0, metadata !"", i32 0, i32 0, i64 0, i64 0, i64 0, i32 0, null, metadata !624, i32 0, i32 0} ; [ DW_TAG_subroutine_type ]
!624 = metadata !{null, metadata !578, metadata !219}
!625 = metadata !{i32 786478, i32 0, metadata !564, metadata !"ap_int_base", metadata !"ap_int_base", metadata !"", metadata !135, i32 1527, metadata !626, i1 false, i1 false, i32 0, i32 0, null, i32 384, i1 false, null, null, i32 0, metadata !147, i32 1527} ; [ DW_TAG_subprogram ]
!626 = metadata !{i32 786453, i32 0, metadata !"", i32 0, i32 0, i64 0, i64 0, i64 0, i32 0, null, metadata !627, i32 0, i32 0} ; [ DW_TAG_subroutine_type ]
!627 = metadata !{null, metadata !578, metadata !224}
!628 = metadata !{i32 786478, i32 0, metadata !564, metadata !"ap_int_base", metadata !"ap_int_base", metadata !"", metadata !135, i32 1528, metadata !629, i1 false, i1 false, i32 0, i32 0, null, i32 384, i1 false, null, null, i32 0, metadata !147, i32 1528} ; [ DW_TAG_subprogram ]
!629 = metadata !{i32 786453, i32 0, metadata !"", i32 0, i32 0, i64 0, i64 0, i64 0, i32 0, null, metadata !630, i32 0, i32 0} ; [ DW_TAG_subroutine_type ]
!630 = metadata !{null, metadata !578, metadata !229}
!631 = metadata !{i32 786478, i32 0, metadata !564, metadata !"ap_int_base", metadata !"ap_int_base", metadata !"", metadata !135, i32 1529, metadata !632, i1 false, i1 false, i32 0, i32 0, null, i32 384, i1 false, null, null, i32 0, metadata !147, i32 1529} ; [ DW_TAG_subprogram ]
!632 = metadata !{i32 786453, i32 0, metadata !"", i32 0, i32 0, i64 0, i64 0, i64 0, i32 0, null, metadata !633, i32 0, i32 0} ; [ DW_TAG_subroutine_type ]
!633 = metadata !{null, metadata !578, metadata !233}
!634 = metadata !{i32 786478, i32 0, metadata !564, metadata !"ap_int_base", metadata !"ap_int_base", metadata !"", metadata !135, i32 1556, metadata !635, i1 false, i1 false, i32 0, i32 0, null, i32 256, i1 false, null, null, i32 0, metadata !147, i32 1556} ; [ DW_TAG_subprogram ]
!635 = metadata !{i32 786453, i32 0, metadata !"", i32 0, i32 0, i64 0, i64 0, i64 0, i32 0, null, metadata !636, i32 0, i32 0} ; [ DW_TAG_subroutine_type ]
!636 = metadata !{null, metadata !578, metadata !237}
!637 = metadata !{i32 786478, i32 0, metadata !564, metadata !"ap_int_base", metadata !"ap_int_base", metadata !"", metadata !135, i32 1563, metadata !638, i1 false, i1 false, i32 0, i32 0, null, i32 256, i1 false, null, null, i32 0, metadata !147, i32 1563} ; [ DW_TAG_subprogram ]
!638 = metadata !{i32 786453, i32 0, metadata !"", i32 0, i32 0, i64 0, i64 0, i64 0, i32 0, null, metadata !639, i32 0, i32 0} ; [ DW_TAG_subroutine_type ]
!639 = metadata !{null, metadata !578, metadata !237, metadata !183}
!640 = metadata !{i32 786478, i32 0, metadata !564, metadata !"read", metadata !"read", metadata !"_ZNV11ap_int_baseILi3ELb0ELb1EE4readEv", metadata !135, i32 1584, metadata !641, i1 false, i1 false, i32 0, i32 0, null, i32 256, i1 false, null, null, i32 0, metadata !147, i32 1584} ; [ DW_TAG_subprogram ]
!641 = metadata !{i32 786453, i32 0, metadata !"", i32 0, i32 0, i64 0, i64 0, i64 0, i32 0, null, metadata !642, i32 0, i32 0} ; [ DW_TAG_subroutine_type ]
!642 = metadata !{metadata !564, metadata !643}
!643 = metadata !{i32 786447, i32 0, metadata !"", i32 0, i32 0, i64 64, i64 64, i64 0, i32 64, metadata !591} ; [ DW_TAG_pointer_type ]
!644 = metadata !{i32 786478, i32 0, metadata !564, metadata !"write", metadata !"write", metadata !"_ZNV11ap_int_baseILi3ELb0ELb1EE5writeERKS0_", metadata !135, i32 1590, metadata !645, i1 false, i1 false, i32 0, i32 0, null, i32 256, i1 false, null, null, i32 0, metadata !147, i32 1590} ; [ DW_TAG_subprogram ]
!645 = metadata !{i32 786453, i32 0, metadata !"", i32 0, i32 0, i64 0, i64 0, i64 0, i32 0, null, metadata !646, i32 0, i32 0} ; [ DW_TAG_subroutine_type ]
!646 = metadata !{null, metadata !643, metadata !582}
!647 = metadata !{i32 786478, i32 0, metadata !564, metadata !"operator=", metadata !"operator=", metadata !"_ZNV11ap_int_baseILi3ELb0ELb1EEaSERVKS0_", metadata !135, i32 1602, metadata !648, i1 false, i1 false, i32 0, i32 0, null, i32 256, i1 false, null, null, i32 0, metadata !147, i32 1602} ; [ DW_TAG_subprogram ]
!648 = metadata !{i32 786453, i32 0, metadata !"", i32 0, i32 0, i64 0, i64 0, i64 0, i32 0, null, metadata !649, i32 0, i32 0} ; [ DW_TAG_subroutine_type ]
!649 = metadata !{null, metadata !643, metadata !589}
!650 = metadata !{i32 786478, i32 0, metadata !564, metadata !"operator=", metadata !"operator=", metadata !"_ZNV11ap_int_baseILi3ELb0ELb1EEaSERKS0_", metadata !135, i32 1611, metadata !645, i1 false, i1 false, i32 0, i32 0, null, i32 256, i1 false, null, null, i32 0, metadata !147, i32 1611} ; [ DW_TAG_subprogram ]
!651 = metadata !{i32 786478, i32 0, metadata !564, metadata !"operator=", metadata !"operator=", metadata !"_ZN11ap_int_baseILi3ELb0ELb1EEaSERVKS0_", metadata !135, i32 1634, metadata !652, i1 false, i1 false, i32 0, i32 0, null, i32 256, i1 false, null, null, i32 0, metadata !147, i32 1634} ; [ DW_TAG_subprogram ]
!652 = metadata !{i32 786453, i32 0, metadata !"", i32 0, i32 0, i64 0, i64 0, i64 0, i32 0, null, metadata !653, i32 0, i32 0} ; [ DW_TAG_subroutine_type ]
!653 = metadata !{metadata !654, metadata !578, metadata !589}
!654 = metadata !{i32 786448, null, null, null, i32 0, i64 0, i64 0, i64 0, i32 0, metadata !564} ; [ DW_TAG_reference_type ]
!655 = metadata !{i32 786478, i32 0, metadata !564, metadata !"operator=", metadata !"operator=", metadata !"_ZN11ap_int_baseILi3ELb0ELb1EEaSERKS0_", metadata !135, i32 1639, metadata !656, i1 false, i1 false, i32 0, i32 0, null, i32 256, i1 false, null, null, i32 0, metadata !147, i32 1639} ; [ DW_TAG_subprogram ]
!656 = metadata !{i32 786453, i32 0, metadata !"", i32 0, i32 0, i64 0, i64 0, i64 0, i32 0, null, metadata !657, i32 0, i32 0} ; [ DW_TAG_subroutine_type ]
!657 = metadata !{metadata !654, metadata !578, metadata !582}
!658 = metadata !{i32 786478, i32 0, metadata !564, metadata !"operator=", metadata !"operator=", metadata !"_ZN11ap_int_baseILi3ELb0ELb1EEaSEPKc", metadata !135, i32 1643, metadata !659, i1 false, i1 false, i32 0, i32 0, null, i32 256, i1 false, null, null, i32 0, metadata !147, i32 1643} ; [ DW_TAG_subprogram ]
!659 = metadata !{i32 786453, i32 0, metadata !"", i32 0, i32 0, i64 0, i64 0, i64 0, i32 0, null, metadata !660, i32 0, i32 0} ; [ DW_TAG_subroutine_type ]
!660 = metadata !{metadata !654, metadata !578, metadata !237}
!661 = metadata !{i32 786478, i32 0, metadata !564, metadata !"set", metadata !"set", metadata !"_ZN11ap_int_baseILi3ELb0ELb1EE3setEPKca", metadata !135, i32 1651, metadata !662, i1 false, i1 false, i32 0, i32 0, null, i32 256, i1 false, null, null, i32 0, metadata !147, i32 1651} ; [ DW_TAG_subprogram ]
!662 = metadata !{i32 786453, i32 0, metadata !"", i32 0, i32 0, i64 0, i64 0, i64 0, i32 0, null, metadata !663, i32 0, i32 0} ; [ DW_TAG_subroutine_type ]
!663 = metadata !{metadata !654, metadata !578, metadata !237, metadata !183}
!664 = metadata !{i32 786478, i32 0, metadata !564, metadata !"operator=", metadata !"operator=", metadata !"_ZN11ap_int_baseILi3ELb0ELb1EEaSEa", metadata !135, i32 1665, metadata !665, i1 false, i1 false, i32 0, i32 0, null, i32 256, i1 false, null, null, i32 0, metadata !147, i32 1665} ; [ DW_TAG_subprogram ]
!665 = metadata !{i32 786453, i32 0, metadata !"", i32 0, i32 0, i64 0, i64 0, i64 0, i32 0, null, metadata !666, i32 0, i32 0} ; [ DW_TAG_subroutine_type ]
!666 = metadata !{metadata !654, metadata !578, metadata !183}
!667 = metadata !{i32 786478, i32 0, metadata !564, metadata !"operator=", metadata !"operator=", metadata !"_ZN11ap_int_baseILi3ELb0ELb1EEaSEh", metadata !135, i32 1666, metadata !668, i1 false, i1 false, i32 0, i32 0, null, i32 256, i1 false, null, null, i32 0, metadata !147, i32 1666} ; [ DW_TAG_subprogram ]
!668 = metadata !{i32 786453, i32 0, metadata !"", i32 0, i32 0, i64 0, i64 0, i64 0, i32 0, null, metadata !669, i32 0, i32 0} ; [ DW_TAG_subroutine_type ]
!669 = metadata !{metadata !654, metadata !578, metadata !187}
!670 = metadata !{i32 786478, i32 0, metadata !564, metadata !"operator=", metadata !"operator=", metadata !"_ZN11ap_int_baseILi3ELb0ELb1EEaSEs", metadata !135, i32 1667, metadata !671, i1 false, i1 false, i32 0, i32 0, null, i32 256, i1 false, null, null, i32 0, metadata !147, i32 1667} ; [ DW_TAG_subprogram ]
!671 = metadata !{i32 786453, i32 0, metadata !"", i32 0, i32 0, i64 0, i64 0, i64 0, i32 0, null, metadata !672, i32 0, i32 0} ; [ DW_TAG_subroutine_type ]
!672 = metadata !{metadata !654, metadata !578, metadata !191}
!673 = metadata !{i32 786478, i32 0, metadata !564, metadata !"operator=", metadata !"operator=", metadata !"_ZN11ap_int_baseILi3ELb0ELb1EEaSEt", metadata !135, i32 1668, metadata !674, i1 false, i1 false, i32 0, i32 0, null, i32 256, i1 false, null, null, i32 0, metadata !147, i32 1668} ; [ DW_TAG_subprogram ]
!674 = metadata !{i32 786453, i32 0, metadata !"", i32 0, i32 0, i64 0, i64 0, i64 0, i32 0, null, metadata !675, i32 0, i32 0} ; [ DW_TAG_subroutine_type ]
!675 = metadata !{metadata !654, metadata !578, metadata !195}
!676 = metadata !{i32 786478, i32 0, metadata !564, metadata !"operator=", metadata !"operator=", metadata !"_ZN11ap_int_baseILi3ELb0ELb1EEaSEi", metadata !135, i32 1669, metadata !677, i1 false, i1 false, i32 0, i32 0, null, i32 256, i1 false, null, null, i32 0, metadata !147, i32 1669} ; [ DW_TAG_subprogram ]
!677 = metadata !{i32 786453, i32 0, metadata !"", i32 0, i32 0, i64 0, i64 0, i64 0, i32 0, null, metadata !678, i32 0, i32 0} ; [ DW_TAG_subroutine_type ]
!678 = metadata !{metadata !654, metadata !578, metadata !156}
!679 = metadata !{i32 786478, i32 0, metadata !564, metadata !"operator=", metadata !"operator=", metadata !"_ZN11ap_int_baseILi3ELb0ELb1EEaSEj", metadata !135, i32 1670, metadata !680, i1 false, i1 false, i32 0, i32 0, null, i32 256, i1 false, null, null, i32 0, metadata !147, i32 1670} ; [ DW_TAG_subprogram ]
!680 = metadata !{i32 786453, i32 0, metadata !"", i32 0, i32 0, i64 0, i64 0, i64 0, i32 0, null, metadata !681, i32 0, i32 0} ; [ DW_TAG_subroutine_type ]
!681 = metadata !{metadata !654, metadata !578, metadata !202}
!682 = metadata !{i32 786478, i32 0, metadata !564, metadata !"operator=", metadata !"operator=", metadata !"_ZN11ap_int_baseILi3ELb0ELb1EEaSEx", metadata !135, i32 1671, metadata !683, i1 false, i1 false, i32 0, i32 0, null, i32 256, i1 false, null, null, i32 0, metadata !147, i32 1671} ; [ DW_TAG_subprogram ]
!683 = metadata !{i32 786453, i32 0, metadata !"", i32 0, i32 0, i64 0, i64 0, i64 0, i32 0, null, metadata !684, i32 0, i32 0} ; [ DW_TAG_subroutine_type ]
!684 = metadata !{metadata !654, metadata !578, metadata !214}
!685 = metadata !{i32 786478, i32 0, metadata !564, metadata !"operator=", metadata !"operator=", metadata !"_ZN11ap_int_baseILi3ELb0ELb1EEaSEy", metadata !135, i32 1672, metadata !686, i1 false, i1 false, i32 0, i32 0, null, i32 256, i1 false, null, null, i32 0, metadata !147, i32 1672} ; [ DW_TAG_subprogram ]
!686 = metadata !{i32 786453, i32 0, metadata !"", i32 0, i32 0, i64 0, i64 0, i64 0, i32 0, null, metadata !687, i32 0, i32 0} ; [ DW_TAG_subroutine_type ]
!687 = metadata !{metadata !654, metadata !578, metadata !219}
!688 = metadata !{i32 786478, i32 0, metadata !564, metadata !"operator unsigned char", metadata !"operator unsigned char", metadata !"_ZNK11ap_int_baseILi3ELb0ELb1EEcvhEv", metadata !135, i32 1710, metadata !689, i1 false, i1 false, i32 0, i32 0, null, i32 256, i1 false, null, null, i32 0, metadata !147, i32 1710} ; [ DW_TAG_subprogram ]
!689 = metadata !{i32 786453, i32 0, metadata !"", i32 0, i32 0, i64 0, i64 0, i64 0, i32 0, null, metadata !690, i32 0, i32 0} ; [ DW_TAG_subroutine_type ]
!690 = metadata !{metadata !691, metadata !696}
!691 = metadata !{i32 786454, metadata !564, metadata !"RetType", metadata !135, i32 1458, i64 0, i64 0, i64 0, i32 0, metadata !692} ; [ DW_TAG_typedef ]
!692 = metadata !{i32 786454, metadata !693, metadata !"Type", metadata !135, i32 1426, i64 0, i64 0, i64 0, i32 0, metadata !187} ; [ DW_TAG_typedef ]
!693 = metadata !{i32 786434, null, metadata !"retval<1, false>", metadata !135, i32 1425, i64 8, i64 8, i32 0, i32 0, null, metadata !297, i32 0, null, metadata !694} ; [ DW_TAG_class_type ]
!694 = metadata !{metadata !695, metadata !157}
!695 = metadata !{i32 786480, null, metadata !"_AP_N", metadata !156, i64 1, null, i32 0, i32 0} ; [ DW_TAG_template_value_parameter ]
!696 = metadata !{i32 786447, i32 0, metadata !"", i32 0, i32 0, i64 64, i64 64, i64 0, i32 64, metadata !583} ; [ DW_TAG_pointer_type ]
!697 = metadata !{i32 786478, i32 0, metadata !564, metadata !"to_bool", metadata !"to_bool", metadata !"_ZNK11ap_int_baseILi3ELb0ELb1EE7to_boolEv", metadata !135, i32 1716, metadata !698, i1 false, i1 false, i32 0, i32 0, null, i32 256, i1 false, null, null, i32 0, metadata !147, i32 1716} ; [ DW_TAG_subprogram ]
!698 = metadata !{i32 786453, i32 0, metadata !"", i32 0, i32 0, i64 0, i64 0, i64 0, i32 0, null, metadata !699, i32 0, i32 0} ; [ DW_TAG_subroutine_type ]
!699 = metadata !{metadata !158, metadata !696}
!700 = metadata !{i32 786478, i32 0, metadata !564, metadata !"to_uchar", metadata !"to_uchar", metadata !"_ZNK11ap_int_baseILi3ELb0ELb1EE8to_ucharEv", metadata !135, i32 1717, metadata !701, i1 false, i1 false, i32 0, i32 0, null, i32 256, i1 false, null, null, i32 0, metadata !147, i32 1717} ; [ DW_TAG_subprogram ]
!701 = metadata !{i32 786453, i32 0, metadata !"", i32 0, i32 0, i64 0, i64 0, i64 0, i32 0, null, metadata !702, i32 0, i32 0} ; [ DW_TAG_subroutine_type ]
!702 = metadata !{metadata !187, metadata !696}
!703 = metadata !{i32 786478, i32 0, metadata !564, metadata !"to_char", metadata !"to_char", metadata !"_ZNK11ap_int_baseILi3ELb0ELb1EE7to_charEv", metadata !135, i32 1718, metadata !704, i1 false, i1 false, i32 0, i32 0, null, i32 256, i1 false, null, null, i32 0, metadata !147, i32 1718} ; [ DW_TAG_subprogram ]
!704 = metadata !{i32 786453, i32 0, metadata !"", i32 0, i32 0, i64 0, i64 0, i64 0, i32 0, null, metadata !705, i32 0, i32 0} ; [ DW_TAG_subroutine_type ]
!705 = metadata !{metadata !183, metadata !696}
!706 = metadata !{i32 786478, i32 0, metadata !564, metadata !"to_ushort", metadata !"to_ushort", metadata !"_ZNK11ap_int_baseILi3ELb0ELb1EE9to_ushortEv", metadata !135, i32 1719, metadata !707, i1 false, i1 false, i32 0, i32 0, null, i32 256, i1 false, null, null, i32 0, metadata !147, i32 1719} ; [ DW_TAG_subprogram ]
!707 = metadata !{i32 786453, i32 0, metadata !"", i32 0, i32 0, i64 0, i64 0, i64 0, i32 0, null, metadata !708, i32 0, i32 0} ; [ DW_TAG_subroutine_type ]
!708 = metadata !{metadata !195, metadata !696}
!709 = metadata !{i32 786478, i32 0, metadata !564, metadata !"to_short", metadata !"to_short", metadata !"_ZNK11ap_int_baseILi3ELb0ELb1EE8to_shortEv", metadata !135, i32 1720, metadata !710, i1 false, i1 false, i32 0, i32 0, null, i32 256, i1 false, null, null, i32 0, metadata !147, i32 1720} ; [ DW_TAG_subprogram ]
!710 = metadata !{i32 786453, i32 0, metadata !"", i32 0, i32 0, i64 0, i64 0, i64 0, i32 0, null, metadata !711, i32 0, i32 0} ; [ DW_TAG_subroutine_type ]
!711 = metadata !{metadata !191, metadata !696}
!712 = metadata !{i32 786478, i32 0, metadata !564, metadata !"to_int", metadata !"to_int", metadata !"_ZNK11ap_int_baseILi3ELb0ELb1EE6to_intEv", metadata !135, i32 1721, metadata !713, i1 false, i1 false, i32 0, i32 0, null, i32 256, i1 false, null, null, i32 0, metadata !147, i32 1721} ; [ DW_TAG_subprogram ]
!713 = metadata !{i32 786453, i32 0, metadata !"", i32 0, i32 0, i64 0, i64 0, i64 0, i32 0, null, metadata !714, i32 0, i32 0} ; [ DW_TAG_subroutine_type ]
!714 = metadata !{metadata !156, metadata !696}
!715 = metadata !{i32 786478, i32 0, metadata !564, metadata !"to_uint", metadata !"to_uint", metadata !"_ZNK11ap_int_baseILi3ELb0ELb1EE7to_uintEv", metadata !135, i32 1722, metadata !716, i1 false, i1 false, i32 0, i32 0, null, i32 256, i1 false, null, null, i32 0, metadata !147, i32 1722} ; [ DW_TAG_subprogram ]
!716 = metadata !{i32 786453, i32 0, metadata !"", i32 0, i32 0, i64 0, i64 0, i64 0, i32 0, null, metadata !717, i32 0, i32 0} ; [ DW_TAG_subroutine_type ]
!717 = metadata !{metadata !202, metadata !696}
!718 = metadata !{i32 786478, i32 0, metadata !564, metadata !"to_long", metadata !"to_long", metadata !"_ZNK11ap_int_baseILi3ELb0ELb1EE7to_longEv", metadata !135, i32 1723, metadata !719, i1 false, i1 false, i32 0, i32 0, null, i32 256, i1 false, null, null, i32 0, metadata !147, i32 1723} ; [ DW_TAG_subprogram ]
!719 = metadata !{i32 786453, i32 0, metadata !"", i32 0, i32 0, i64 0, i64 0, i64 0, i32 0, null, metadata !720, i32 0, i32 0} ; [ DW_TAG_subroutine_type ]
!720 = metadata !{metadata !206, metadata !696}
!721 = metadata !{i32 786478, i32 0, metadata !564, metadata !"to_ulong", metadata !"to_ulong", metadata !"_ZNK11ap_int_baseILi3ELb0ELb1EE8to_ulongEv", metadata !135, i32 1724, metadata !722, i1 false, i1 false, i32 0, i32 0, null, i32 256, i1 false, null, null, i32 0, metadata !147, i32 1724} ; [ DW_TAG_subprogram ]
!722 = metadata !{i32 786453, i32 0, metadata !"", i32 0, i32 0, i64 0, i64 0, i64 0, i32 0, null, metadata !723, i32 0, i32 0} ; [ DW_TAG_subroutine_type ]
!723 = metadata !{metadata !210, metadata !696}
!724 = metadata !{i32 786478, i32 0, metadata !564, metadata !"to_int64", metadata !"to_int64", metadata !"_ZNK11ap_int_baseILi3ELb0ELb1EE8to_int64Ev", metadata !135, i32 1725, metadata !725, i1 false, i1 false, i32 0, i32 0, null, i32 256, i1 false, null, null, i32 0, metadata !147, i32 1725} ; [ DW_TAG_subprogram ]
!725 = metadata !{i32 786453, i32 0, metadata !"", i32 0, i32 0, i64 0, i64 0, i64 0, i32 0, null, metadata !726, i32 0, i32 0} ; [ DW_TAG_subroutine_type ]
!726 = metadata !{metadata !214, metadata !696}
!727 = metadata !{i32 786478, i32 0, metadata !564, metadata !"to_uint64", metadata !"to_uint64", metadata !"_ZNK11ap_int_baseILi3ELb0ELb1EE9to_uint64Ev", metadata !135, i32 1726, metadata !728, i1 false, i1 false, i32 0, i32 0, null, i32 256, i1 false, null, null, i32 0, metadata !147, i32 1726} ; [ DW_TAG_subprogram ]
!728 = metadata !{i32 786453, i32 0, metadata !"", i32 0, i32 0, i64 0, i64 0, i64 0, i32 0, null, metadata !729, i32 0, i32 0} ; [ DW_TAG_subroutine_type ]
!729 = metadata !{metadata !219, metadata !696}
!730 = metadata !{i32 786478, i32 0, metadata !564, metadata !"to_double", metadata !"to_double", metadata !"_ZNK11ap_int_baseILi3ELb0ELb1EE9to_doubleEv", metadata !135, i32 1727, metadata !731, i1 false, i1 false, i32 0, i32 0, null, i32 256, i1 false, null, null, i32 0, metadata !147, i32 1727} ; [ DW_TAG_subprogram ]
!731 = metadata !{i32 786453, i32 0, metadata !"", i32 0, i32 0, i64 0, i64 0, i64 0, i32 0, null, metadata !732, i32 0, i32 0} ; [ DW_TAG_subroutine_type ]
!732 = metadata !{metadata !233, metadata !696}
!733 = metadata !{i32 786478, i32 0, metadata !564, metadata !"length", metadata !"length", metadata !"_ZNK11ap_int_baseILi3ELb0ELb1EE6lengthEv", metadata !135, i32 1741, metadata !713, i1 false, i1 false, i32 0, i32 0, null, i32 256, i1 false, null, null, i32 0, metadata !147, i32 1741} ; [ DW_TAG_subprogram ]
!734 = metadata !{i32 786478, i32 0, metadata !564, metadata !"length", metadata !"length", metadata !"_ZNVK11ap_int_baseILi3ELb0ELb1EE6lengthEv", metadata !135, i32 1742, metadata !735, i1 false, i1 false, i32 0, i32 0, null, i32 256, i1 false, null, null, i32 0, metadata !147, i32 1742} ; [ DW_TAG_subprogram ]
!735 = metadata !{i32 786453, i32 0, metadata !"", i32 0, i32 0, i64 0, i64 0, i64 0, i32 0, null, metadata !736, i32 0, i32 0} ; [ DW_TAG_subroutine_type ]
!736 = metadata !{metadata !156, metadata !737}
!737 = metadata !{i32 786447, i32 0, metadata !"", i32 0, i32 0, i64 64, i64 64, i64 0, i32 64, metadata !590} ; [ DW_TAG_pointer_type ]
!738 = metadata !{i32 786478, i32 0, metadata !564, metadata !"reverse", metadata !"reverse", metadata !"_ZN11ap_int_baseILi3ELb0ELb1EE7reverseEv", metadata !135, i32 1747, metadata !739, i1 false, i1 false, i32 0, i32 0, null, i32 256, i1 false, null, null, i32 0, metadata !147, i32 1747} ; [ DW_TAG_subprogram ]
!739 = metadata !{i32 786453, i32 0, metadata !"", i32 0, i32 0, i64 0, i64 0, i64 0, i32 0, null, metadata !740, i32 0, i32 0} ; [ DW_TAG_subroutine_type ]
!740 = metadata !{metadata !654, metadata !578}
!741 = metadata !{i32 786478, i32 0, metadata !564, metadata !"iszero", metadata !"iszero", metadata !"_ZNK11ap_int_baseILi3ELb0ELb1EE6iszeroEv", metadata !135, i32 1753, metadata !698, i1 false, i1 false, i32 0, i32 0, null, i32 256, i1 false, null, null, i32 0, metadata !147, i32 1753} ; [ DW_TAG_subprogram ]
!742 = metadata !{i32 786478, i32 0, metadata !564, metadata !"is_zero", metadata !"is_zero", metadata !"_ZNK11ap_int_baseILi3ELb0ELb1EE7is_zeroEv", metadata !135, i32 1758, metadata !698, i1 false, i1 false, i32 0, i32 0, null, i32 256, i1 false, null, null, i32 0, metadata !147, i32 1758} ; [ DW_TAG_subprogram ]
!743 = metadata !{i32 786478, i32 0, metadata !564, metadata !"sign", metadata !"sign", metadata !"_ZNK11ap_int_baseILi3ELb0ELb1EE4signEv", metadata !135, i32 1763, metadata !698, i1 false, i1 false, i32 0, i32 0, null, i32 256, i1 false, null, null, i32 0, metadata !147, i32 1763} ; [ DW_TAG_subprogram ]
!744 = metadata !{i32 786478, i32 0, metadata !564, metadata !"clear", metadata !"clear", metadata !"_ZN11ap_int_baseILi3ELb0ELb1EE5clearEi", metadata !135, i32 1771, metadata !608, i1 false, i1 false, i32 0, i32 0, null, i32 256, i1 false, null, null, i32 0, metadata !147, i32 1771} ; [ DW_TAG_subprogram ]
!745 = metadata !{i32 786478, i32 0, metadata !564, metadata !"invert", metadata !"invert", metadata !"_ZN11ap_int_baseILi3ELb0ELb1EE6invertEi", metadata !135, i32 1777, metadata !608, i1 false, i1 false, i32 0, i32 0, null, i32 256, i1 false, null, null, i32 0, metadata !147, i32 1777} ; [ DW_TAG_subprogram ]
!746 = metadata !{i32 786478, i32 0, metadata !564, metadata !"test", metadata !"test", metadata !"_ZNK11ap_int_baseILi3ELb0ELb1EE4testEi", metadata !135, i32 1785, metadata !747, i1 false, i1 false, i32 0, i32 0, null, i32 256, i1 false, null, null, i32 0, metadata !147, i32 1785} ; [ DW_TAG_subprogram ]
!747 = metadata !{i32 786453, i32 0, metadata !"", i32 0, i32 0, i64 0, i64 0, i64 0, i32 0, null, metadata !748, i32 0, i32 0} ; [ DW_TAG_subroutine_type ]
!748 = metadata !{metadata !158, metadata !696, metadata !156}
!749 = metadata !{i32 786478, i32 0, metadata !564, metadata !"set", metadata !"set", metadata !"_ZN11ap_int_baseILi3ELb0ELb1EE3setEi", metadata !135, i32 1791, metadata !608, i1 false, i1 false, i32 0, i32 0, null, i32 256, i1 false, null, null, i32 0, metadata !147, i32 1791} ; [ DW_TAG_subprogram ]
!750 = metadata !{i32 786478, i32 0, metadata !564, metadata !"set", metadata !"set", metadata !"_ZN11ap_int_baseILi3ELb0ELb1EE3setEib", metadata !135, i32 1797, metadata !751, i1 false, i1 false, i32 0, i32 0, null, i32 256, i1 false, null, null, i32 0, metadata !147, i32 1797} ; [ DW_TAG_subprogram ]
!751 = metadata !{i32 786453, i32 0, metadata !"", i32 0, i32 0, i64 0, i64 0, i64 0, i32 0, null, metadata !752, i32 0, i32 0} ; [ DW_TAG_subroutine_type ]
!752 = metadata !{null, metadata !578, metadata !156, metadata !158}
!753 = metadata !{i32 786478, i32 0, metadata !564, metadata !"lrotate", metadata !"lrotate", metadata !"_ZN11ap_int_baseILi3ELb0ELb1EE7lrotateEi", metadata !135, i32 1804, metadata !608, i1 false, i1 false, i32 0, i32 0, null, i32 256, i1 false, null, null, i32 0, metadata !147, i32 1804} ; [ DW_TAG_subprogram ]
!754 = metadata !{i32 786478, i32 0, metadata !564, metadata !"rrotate", metadata !"rrotate", metadata !"_ZN11ap_int_baseILi3ELb0ELb1EE7rrotateEi", metadata !135, i32 1813, metadata !608, i1 false, i1 false, i32 0, i32 0, null, i32 256, i1 false, null, null, i32 0, metadata !147, i32 1813} ; [ DW_TAG_subprogram ]
!755 = metadata !{i32 786478, i32 0, metadata !564, metadata !"set_bit", metadata !"set_bit", metadata !"_ZN11ap_int_baseILi3ELb0ELb1EE7set_bitEib", metadata !135, i32 1821, metadata !751, i1 false, i1 false, i32 0, i32 0, null, i32 256, i1 false, null, null, i32 0, metadata !147, i32 1821} ; [ DW_TAG_subprogram ]
!756 = metadata !{i32 786478, i32 0, metadata !564, metadata !"get_bit", metadata !"get_bit", metadata !"_ZNK11ap_int_baseILi3ELb0ELb1EE7get_bitEi", metadata !135, i32 1826, metadata !747, i1 false, i1 false, i32 0, i32 0, null, i32 256, i1 false, null, null, i32 0, metadata !147, i32 1826} ; [ DW_TAG_subprogram ]
!757 = metadata !{i32 786478, i32 0, metadata !564, metadata !"b_not", metadata !"b_not", metadata !"_ZN11ap_int_baseILi3ELb0ELb1EE5b_notEv", metadata !135, i32 1831, metadata !576, i1 false, i1 false, i32 0, i32 0, null, i32 256, i1 false, null, null, i32 0, metadata !147, i32 1831} ; [ DW_TAG_subprogram ]
!758 = metadata !{i32 786478, i32 0, metadata !564, metadata !"countLeadingZeros", metadata !"countLeadingZeros", metadata !"_ZN11ap_int_baseILi3ELb0ELb1EE17countLeadingZerosEv", metadata !135, i32 1838, metadata !759, i1 false, i1 false, i32 0, i32 0, null, i32 256, i1 false, null, null, i32 0, metadata !147, i32 1838} ; [ DW_TAG_subprogram ]
!759 = metadata !{i32 786453, i32 0, metadata !"", i32 0, i32 0, i64 0, i64 0, i64 0, i32 0, null, metadata !760, i32 0, i32 0} ; [ DW_TAG_subroutine_type ]
!760 = metadata !{metadata !156, metadata !578}
!761 = metadata !{i32 786478, i32 0, metadata !564, metadata !"operator++", metadata !"operator++", metadata !"_ZN11ap_int_baseILi3ELb0ELb1EEppEv", metadata !135, i32 1895, metadata !739, i1 false, i1 false, i32 0, i32 0, null, i32 256, i1 false, null, null, i32 0, metadata !147, i32 1895} ; [ DW_TAG_subprogram ]
!762 = metadata !{i32 786478, i32 0, metadata !564, metadata !"operator--", metadata !"operator--", metadata !"_ZN11ap_int_baseILi3ELb0ELb1EEmmEv", metadata !135, i32 1899, metadata !739, i1 false, i1 false, i32 0, i32 0, null, i32 256, i1 false, null, null, i32 0, metadata !147, i32 1899} ; [ DW_TAG_subprogram ]
!763 = metadata !{i32 786478, i32 0, metadata !564, metadata !"operator++", metadata !"operator++", metadata !"_ZN11ap_int_baseILi3ELb0ELb1EEppEi", metadata !135, i32 1907, metadata !764, i1 false, i1 false, i32 0, i32 0, null, i32 256, i1 false, null, null, i32 0, metadata !147, i32 1907} ; [ DW_TAG_subprogram ]
!764 = metadata !{i32 786453, i32 0, metadata !"", i32 0, i32 0, i64 0, i64 0, i64 0, i32 0, null, metadata !765, i32 0, i32 0} ; [ DW_TAG_subroutine_type ]
!765 = metadata !{metadata !583, metadata !578, metadata !156}
!766 = metadata !{i32 786478, i32 0, metadata !564, metadata !"operator--", metadata !"operator--", metadata !"_ZN11ap_int_baseILi3ELb0ELb1EEmmEi", metadata !135, i32 1912, metadata !764, i1 false, i1 false, i32 0, i32 0, null, i32 256, i1 false, null, null, i32 0, metadata !147, i32 1912} ; [ DW_TAG_subprogram ]
!767 = metadata !{i32 786478, i32 0, metadata !564, metadata !"operator+", metadata !"operator+", metadata !"_ZNK11ap_int_baseILi3ELb0ELb1EEpsEv", metadata !135, i32 1921, metadata !768, i1 false, i1 false, i32 0, i32 0, null, i32 256, i1 false, null, null, i32 0, metadata !147, i32 1921} ; [ DW_TAG_subprogram ]
!768 = metadata !{i32 786453, i32 0, metadata !"", i32 0, i32 0, i64 0, i64 0, i64 0, i32 0, null, metadata !769, i32 0, i32 0} ; [ DW_TAG_subroutine_type ]
!769 = metadata !{metadata !564, metadata !696}
!770 = metadata !{i32 786478, i32 0, metadata !564, metadata !"operator!", metadata !"operator!", metadata !"_ZNK11ap_int_baseILi3ELb0ELb1EEntEv", metadata !135, i32 1927, metadata !698, i1 false, i1 false, i32 0, i32 0, null, i32 256, i1 false, null, null, i32 0, metadata !147, i32 1927} ; [ DW_TAG_subprogram ]
!771 = metadata !{i32 786478, i32 0, metadata !564, metadata !"operator-", metadata !"operator-", metadata !"_ZNK11ap_int_baseILi3ELb0ELb1EEngEv", metadata !135, i32 1932, metadata !772, i1 false, i1 false, i32 0, i32 0, null, i32 256, i1 false, null, null, i32 0, metadata !147, i32 1932} ; [ DW_TAG_subprogram ]
!772 = metadata !{i32 786453, i32 0, metadata !"", i32 0, i32 0, i64 0, i64 0, i64 0, i32 0, null, metadata !773, i32 0, i32 0} ; [ DW_TAG_subroutine_type ]
!773 = metadata !{metadata !774, metadata !696}
!774 = metadata !{i32 786434, null, metadata !"ap_int_base<4, true, true>", metadata !135, i32 1453, i64 8, i64 8, i32 0, i32 0, null, metadata !775, i32 0, null, metadata !1276} ; [ DW_TAG_class_type ]
!775 = metadata !{metadata !776, metadata !788, metadata !792, metadata !800, metadata !806, metadata !809, metadata !812, metadata !815, metadata !818, metadata !821, metadata !824, metadata !827, metadata !830, metadata !833, metadata !836, metadata !839, metadata !842, metadata !845, metadata !848, metadata !851, metadata !854, metadata !858, metadata !861, metadata !864, metadata !865, metadata !869, metadata !872, metadata !875, metadata !878, metadata !881, metadata !884, metadata !887, metadata !890, metadata !893, metadata !896, metadata !899, metadata !902, metadata !910, metadata !913, metadata !916, metadata !919, metadata !922, metadata !925, metadata !928, metadata !931, metadata !934, metadata !937, metadata !940, metadata !943, metadata !946, metadata !947, metadata !951, metadata !954, metadata !955, metadata !956, metadata !957, metadata !958, metadata !959, metadata !962, metadata !963, metadata !966, metadata !967, metadata !968, metadata !969, metadata !970, metadata !971, metadata !974, metadata !975, metadata !976, metadata !979, metadata !980, metadata !983, metadata !984, metadata !1237, metadata !1241, metadata !1242, metadata !1245, metadata !1246, metadata !1250, metadata !1251, metadata !1252, metadata !1253, metadata !1256, metadata !1257, metadata !1258, metadata !1259, metadata !1260, metadata !1261, metadata !1262, metadata !1263, metadata !1264, metadata !1265, metadata !1266, metadata !1267, metadata !1270, metadata !1273}
!776 = metadata !{i32 786460, metadata !774, null, metadata !135, i32 0, i64 0, i64 0, i64 0, i32 0, metadata !777} ; [ DW_TAG_inheritance ]
!777 = metadata !{i32 786434, null, metadata !"ssdm_int<4 + 1024 * 0, true>", metadata !139, i32 6, i64 8, i64 8, i32 0, i32 0, null, metadata !778, i32 0, null, metadata !785} ; [ DW_TAG_class_type ]
!778 = metadata !{metadata !779, metadata !781}
!779 = metadata !{i32 786445, metadata !777, metadata !"V", metadata !139, i32 6, i64 4, i64 4, i64 0, i32 0, metadata !780} ; [ DW_TAG_member ]
!780 = metadata !{i32 786468, null, metadata !"int4", null, i32 0, i64 4, i64 4, i64 0, i32 0, i32 5} ; [ DW_TAG_base_type ]
!781 = metadata !{i32 786478, i32 0, metadata !777, metadata !"ssdm_int", metadata !"ssdm_int", metadata !"", metadata !139, i32 6, metadata !782, i1 false, i1 false, i32 0, i32 0, null, i32 256, i1 false, null, null, i32 0, metadata !147, i32 6} ; [ DW_TAG_subprogram ]
!782 = metadata !{i32 786453, i32 0, metadata !"", i32 0, i32 0, i64 0, i64 0, i64 0, i32 0, null, metadata !783, i32 0, i32 0} ; [ DW_TAG_subroutine_type ]
!783 = metadata !{null, metadata !784}
!784 = metadata !{i32 786447, i32 0, metadata !"", i32 0, i32 0, i64 64, i64 64, i64 0, i32 64, metadata !777} ; [ DW_TAG_pointer_type ]
!785 = metadata !{metadata !786, metadata !787}
!786 = metadata !{i32 786480, null, metadata !"_AP_N", metadata !156, i64 4, null, i32 0, i32 0} ; [ DW_TAG_template_value_parameter ]
!787 = metadata !{i32 786480, null, metadata !"_AP_S", metadata !158, i64 1, null, i32 0, i32 0} ; [ DW_TAG_template_value_parameter ]
!788 = metadata !{i32 786478, i32 0, metadata !774, metadata !"ap_int_base", metadata !"ap_int_base", metadata !"", metadata !135, i32 1494, metadata !789, i1 false, i1 false, i32 0, i32 0, null, i32 256, i1 false, null, null, i32 0, metadata !147, i32 1494} ; [ DW_TAG_subprogram ]
!789 = metadata !{i32 786453, i32 0, metadata !"", i32 0, i32 0, i64 0, i64 0, i64 0, i32 0, null, metadata !790, i32 0, i32 0} ; [ DW_TAG_subroutine_type ]
!790 = metadata !{null, metadata !791}
!791 = metadata !{i32 786447, i32 0, metadata !"", i32 0, i32 0, i64 64, i64 64, i64 0, i32 64, metadata !774} ; [ DW_TAG_pointer_type ]
!792 = metadata !{i32 786478, i32 0, metadata !774, metadata !"ap_int_base<4, true>", metadata !"ap_int_base<4, true>", metadata !"", metadata !135, i32 1506, metadata !793, i1 false, i1 false, i32 0, i32 0, null, i32 256, i1 false, null, metadata !797, i32 0, metadata !147, i32 1506} ; [ DW_TAG_subprogram ]
!793 = metadata !{i32 786453, i32 0, metadata !"", i32 0, i32 0, i64 0, i64 0, i64 0, i32 0, null, metadata !794, i32 0, i32 0} ; [ DW_TAG_subroutine_type ]
!794 = metadata !{null, metadata !791, metadata !795}
!795 = metadata !{i32 786448, null, null, null, i32 0, i64 0, i64 0, i64 0, i32 0, metadata !796} ; [ DW_TAG_reference_type ]
!796 = metadata !{i32 786470, null, metadata !"", null, i32 0, i64 0, i64 0, i64 0, i32 0, metadata !774} ; [ DW_TAG_const_type ]
!797 = metadata !{metadata !798, metadata !799}
!798 = metadata !{i32 786480, null, metadata !"_AP_W2", metadata !156, i64 4, null, i32 0, i32 0} ; [ DW_TAG_template_value_parameter ]
!799 = metadata !{i32 786480, null, metadata !"_AP_S2", metadata !158, i64 1, null, i32 0, i32 0} ; [ DW_TAG_template_value_parameter ]
!800 = metadata !{i32 786478, i32 0, metadata !774, metadata !"ap_int_base<4, true>", metadata !"ap_int_base<4, true>", metadata !"", metadata !135, i32 1509, metadata !801, i1 false, i1 false, i32 0, i32 0, null, i32 256, i1 false, null, metadata !797, i32 0, metadata !147, i32 1509} ; [ DW_TAG_subprogram ]
!801 = metadata !{i32 786453, i32 0, metadata !"", i32 0, i32 0, i64 0, i64 0, i64 0, i32 0, null, metadata !802, i32 0, i32 0} ; [ DW_TAG_subroutine_type ]
!802 = metadata !{null, metadata !791, metadata !803}
!803 = metadata !{i32 786448, null, null, null, i32 0, i64 0, i64 0, i64 0, i32 0, metadata !804} ; [ DW_TAG_reference_type ]
!804 = metadata !{i32 786470, null, metadata !"", null, i32 0, i64 0, i64 0, i64 0, i32 0, metadata !805} ; [ DW_TAG_const_type ]
!805 = metadata !{i32 786485, null, metadata !"", null, i32 0, i64 0, i64 0, i64 0, i32 0, metadata !774} ; [ DW_TAG_volatile_type ]
!806 = metadata !{i32 786478, i32 0, metadata !774, metadata !"ap_int_base", metadata !"ap_int_base", metadata !"", metadata !135, i32 1516, metadata !807, i1 false, i1 false, i32 0, i32 0, null, i32 384, i1 false, null, null, i32 0, metadata !147, i32 1516} ; [ DW_TAG_subprogram ]
!807 = metadata !{i32 786453, i32 0, metadata !"", i32 0, i32 0, i64 0, i64 0, i64 0, i32 0, null, metadata !808, i32 0, i32 0} ; [ DW_TAG_subroutine_type ]
!808 = metadata !{null, metadata !791, metadata !158}
!809 = metadata !{i32 786478, i32 0, metadata !774, metadata !"ap_int_base", metadata !"ap_int_base", metadata !"", metadata !135, i32 1517, metadata !810, i1 false, i1 false, i32 0, i32 0, null, i32 384, i1 false, null, null, i32 0, metadata !147, i32 1517} ; [ DW_TAG_subprogram ]
!810 = metadata !{i32 786453, i32 0, metadata !"", i32 0, i32 0, i64 0, i64 0, i64 0, i32 0, null, metadata !811, i32 0, i32 0} ; [ DW_TAG_subroutine_type ]
!811 = metadata !{null, metadata !791, metadata !183}
!812 = metadata !{i32 786478, i32 0, metadata !774, metadata !"ap_int_base", metadata !"ap_int_base", metadata !"", metadata !135, i32 1518, metadata !813, i1 false, i1 false, i32 0, i32 0, null, i32 384, i1 false, null, null, i32 0, metadata !147, i32 1518} ; [ DW_TAG_subprogram ]
!813 = metadata !{i32 786453, i32 0, metadata !"", i32 0, i32 0, i64 0, i64 0, i64 0, i32 0, null, metadata !814, i32 0, i32 0} ; [ DW_TAG_subroutine_type ]
!814 = metadata !{null, metadata !791, metadata !187}
!815 = metadata !{i32 786478, i32 0, metadata !774, metadata !"ap_int_base", metadata !"ap_int_base", metadata !"", metadata !135, i32 1519, metadata !816, i1 false, i1 false, i32 0, i32 0, null, i32 384, i1 false, null, null, i32 0, metadata !147, i32 1519} ; [ DW_TAG_subprogram ]
!816 = metadata !{i32 786453, i32 0, metadata !"", i32 0, i32 0, i64 0, i64 0, i64 0, i32 0, null, metadata !817, i32 0, i32 0} ; [ DW_TAG_subroutine_type ]
!817 = metadata !{null, metadata !791, metadata !191}
!818 = metadata !{i32 786478, i32 0, metadata !774, metadata !"ap_int_base", metadata !"ap_int_base", metadata !"", metadata !135, i32 1520, metadata !819, i1 false, i1 false, i32 0, i32 0, null, i32 384, i1 false, null, null, i32 0, metadata !147, i32 1520} ; [ DW_TAG_subprogram ]
!819 = metadata !{i32 786453, i32 0, metadata !"", i32 0, i32 0, i64 0, i64 0, i64 0, i32 0, null, metadata !820, i32 0, i32 0} ; [ DW_TAG_subroutine_type ]
!820 = metadata !{null, metadata !791, metadata !195}
!821 = metadata !{i32 786478, i32 0, metadata !774, metadata !"ap_int_base", metadata !"ap_int_base", metadata !"", metadata !135, i32 1521, metadata !822, i1 false, i1 false, i32 0, i32 0, null, i32 384, i1 false, null, null, i32 0, metadata !147, i32 1521} ; [ DW_TAG_subprogram ]
!822 = metadata !{i32 786453, i32 0, metadata !"", i32 0, i32 0, i64 0, i64 0, i64 0, i32 0, null, metadata !823, i32 0, i32 0} ; [ DW_TAG_subroutine_type ]
!823 = metadata !{null, metadata !791, metadata !156}
!824 = metadata !{i32 786478, i32 0, metadata !774, metadata !"ap_int_base", metadata !"ap_int_base", metadata !"", metadata !135, i32 1522, metadata !825, i1 false, i1 false, i32 0, i32 0, null, i32 384, i1 false, null, null, i32 0, metadata !147, i32 1522} ; [ DW_TAG_subprogram ]
!825 = metadata !{i32 786453, i32 0, metadata !"", i32 0, i32 0, i64 0, i64 0, i64 0, i32 0, null, metadata !826, i32 0, i32 0} ; [ DW_TAG_subroutine_type ]
!826 = metadata !{null, metadata !791, metadata !202}
!827 = metadata !{i32 786478, i32 0, metadata !774, metadata !"ap_int_base", metadata !"ap_int_base", metadata !"", metadata !135, i32 1523, metadata !828, i1 false, i1 false, i32 0, i32 0, null, i32 384, i1 false, null, null, i32 0, metadata !147, i32 1523} ; [ DW_TAG_subprogram ]
!828 = metadata !{i32 786453, i32 0, metadata !"", i32 0, i32 0, i64 0, i64 0, i64 0, i32 0, null, metadata !829, i32 0, i32 0} ; [ DW_TAG_subroutine_type ]
!829 = metadata !{null, metadata !791, metadata !206}
!830 = metadata !{i32 786478, i32 0, metadata !774, metadata !"ap_int_base", metadata !"ap_int_base", metadata !"", metadata !135, i32 1524, metadata !831, i1 false, i1 false, i32 0, i32 0, null, i32 384, i1 false, null, null, i32 0, metadata !147, i32 1524} ; [ DW_TAG_subprogram ]
!831 = metadata !{i32 786453, i32 0, metadata !"", i32 0, i32 0, i64 0, i64 0, i64 0, i32 0, null, metadata !832, i32 0, i32 0} ; [ DW_TAG_subroutine_type ]
!832 = metadata !{null, metadata !791, metadata !210}
!833 = metadata !{i32 786478, i32 0, metadata !774, metadata !"ap_int_base", metadata !"ap_int_base", metadata !"", metadata !135, i32 1525, metadata !834, i1 false, i1 false, i32 0, i32 0, null, i32 384, i1 false, null, null, i32 0, metadata !147, i32 1525} ; [ DW_TAG_subprogram ]
!834 = metadata !{i32 786453, i32 0, metadata !"", i32 0, i32 0, i64 0, i64 0, i64 0, i32 0, null, metadata !835, i32 0, i32 0} ; [ DW_TAG_subroutine_type ]
!835 = metadata !{null, metadata !791, metadata !214}
!836 = metadata !{i32 786478, i32 0, metadata !774, metadata !"ap_int_base", metadata !"ap_int_base", metadata !"", metadata !135, i32 1526, metadata !837, i1 false, i1 false, i32 0, i32 0, null, i32 384, i1 false, null, null, i32 0, metadata !147, i32 1526} ; [ DW_TAG_subprogram ]
!837 = metadata !{i32 786453, i32 0, metadata !"", i32 0, i32 0, i64 0, i64 0, i64 0, i32 0, null, metadata !838, i32 0, i32 0} ; [ DW_TAG_subroutine_type ]
!838 = metadata !{null, metadata !791, metadata !219}
!839 = metadata !{i32 786478, i32 0, metadata !774, metadata !"ap_int_base", metadata !"ap_int_base", metadata !"", metadata !135, i32 1527, metadata !840, i1 false, i1 false, i32 0, i32 0, null, i32 384, i1 false, null, null, i32 0, metadata !147, i32 1527} ; [ DW_TAG_subprogram ]
!840 = metadata !{i32 786453, i32 0, metadata !"", i32 0, i32 0, i64 0, i64 0, i64 0, i32 0, null, metadata !841, i32 0, i32 0} ; [ DW_TAG_subroutine_type ]
!841 = metadata !{null, metadata !791, metadata !224}
!842 = metadata !{i32 786478, i32 0, metadata !774, metadata !"ap_int_base", metadata !"ap_int_base", metadata !"", metadata !135, i32 1528, metadata !843, i1 false, i1 false, i32 0, i32 0, null, i32 384, i1 false, null, null, i32 0, metadata !147, i32 1528} ; [ DW_TAG_subprogram ]
!843 = metadata !{i32 786453, i32 0, metadata !"", i32 0, i32 0, i64 0, i64 0, i64 0, i32 0, null, metadata !844, i32 0, i32 0} ; [ DW_TAG_subroutine_type ]
!844 = metadata !{null, metadata !791, metadata !229}
!845 = metadata !{i32 786478, i32 0, metadata !774, metadata !"ap_int_base", metadata !"ap_int_base", metadata !"", metadata !135, i32 1529, metadata !846, i1 false, i1 false, i32 0, i32 0, null, i32 384, i1 false, null, null, i32 0, metadata !147, i32 1529} ; [ DW_TAG_subprogram ]
!846 = metadata !{i32 786453, i32 0, metadata !"", i32 0, i32 0, i64 0, i64 0, i64 0, i32 0, null, metadata !847, i32 0, i32 0} ; [ DW_TAG_subroutine_type ]
!847 = metadata !{null, metadata !791, metadata !233}
!848 = metadata !{i32 786478, i32 0, metadata !774, metadata !"ap_int_base", metadata !"ap_int_base", metadata !"", metadata !135, i32 1556, metadata !849, i1 false, i1 false, i32 0, i32 0, null, i32 256, i1 false, null, null, i32 0, metadata !147, i32 1556} ; [ DW_TAG_subprogram ]
!849 = metadata !{i32 786453, i32 0, metadata !"", i32 0, i32 0, i64 0, i64 0, i64 0, i32 0, null, metadata !850, i32 0, i32 0} ; [ DW_TAG_subroutine_type ]
!850 = metadata !{null, metadata !791, metadata !237}
!851 = metadata !{i32 786478, i32 0, metadata !774, metadata !"ap_int_base", metadata !"ap_int_base", metadata !"", metadata !135, i32 1563, metadata !852, i1 false, i1 false, i32 0, i32 0, null, i32 256, i1 false, null, null, i32 0, metadata !147, i32 1563} ; [ DW_TAG_subprogram ]
!852 = metadata !{i32 786453, i32 0, metadata !"", i32 0, i32 0, i64 0, i64 0, i64 0, i32 0, null, metadata !853, i32 0, i32 0} ; [ DW_TAG_subroutine_type ]
!853 = metadata !{null, metadata !791, metadata !237, metadata !183}
!854 = metadata !{i32 786478, i32 0, metadata !774, metadata !"read", metadata !"read", metadata !"_ZNV11ap_int_baseILi4ELb1ELb1EE4readEv", metadata !135, i32 1584, metadata !855, i1 false, i1 false, i32 0, i32 0, null, i32 256, i1 false, null, null, i32 0, metadata !147, i32 1584} ; [ DW_TAG_subprogram ]
!855 = metadata !{i32 786453, i32 0, metadata !"", i32 0, i32 0, i64 0, i64 0, i64 0, i32 0, null, metadata !856, i32 0, i32 0} ; [ DW_TAG_subroutine_type ]
!856 = metadata !{metadata !774, metadata !857}
!857 = metadata !{i32 786447, i32 0, metadata !"", i32 0, i32 0, i64 64, i64 64, i64 0, i32 64, metadata !805} ; [ DW_TAG_pointer_type ]
!858 = metadata !{i32 786478, i32 0, metadata !774, metadata !"write", metadata !"write", metadata !"_ZNV11ap_int_baseILi4ELb1ELb1EE5writeERKS0_", metadata !135, i32 1590, metadata !859, i1 false, i1 false, i32 0, i32 0, null, i32 256, i1 false, null, null, i32 0, metadata !147, i32 1590} ; [ DW_TAG_subprogram ]
!859 = metadata !{i32 786453, i32 0, metadata !"", i32 0, i32 0, i64 0, i64 0, i64 0, i32 0, null, metadata !860, i32 0, i32 0} ; [ DW_TAG_subroutine_type ]
!860 = metadata !{null, metadata !857, metadata !795}
!861 = metadata !{i32 786478, i32 0, metadata !774, metadata !"operator=", metadata !"operator=", metadata !"_ZNV11ap_int_baseILi4ELb1ELb1EEaSERVKS0_", metadata !135, i32 1602, metadata !862, i1 false, i1 false, i32 0, i32 0, null, i32 256, i1 false, null, null, i32 0, metadata !147, i32 1602} ; [ DW_TAG_subprogram ]
!862 = metadata !{i32 786453, i32 0, metadata !"", i32 0, i32 0, i64 0, i64 0, i64 0, i32 0, null, metadata !863, i32 0, i32 0} ; [ DW_TAG_subroutine_type ]
!863 = metadata !{null, metadata !857, metadata !803}
!864 = metadata !{i32 786478, i32 0, metadata !774, metadata !"operator=", metadata !"operator=", metadata !"_ZNV11ap_int_baseILi4ELb1ELb1EEaSERKS0_", metadata !135, i32 1611, metadata !859, i1 false, i1 false, i32 0, i32 0, null, i32 256, i1 false, null, null, i32 0, metadata !147, i32 1611} ; [ DW_TAG_subprogram ]
!865 = metadata !{i32 786478, i32 0, metadata !774, metadata !"operator=", metadata !"operator=", metadata !"_ZN11ap_int_baseILi4ELb1ELb1EEaSERVKS0_", metadata !135, i32 1634, metadata !866, i1 false, i1 false, i32 0, i32 0, null, i32 256, i1 false, null, null, i32 0, metadata !147, i32 1634} ; [ DW_TAG_subprogram ]
!866 = metadata !{i32 786453, i32 0, metadata !"", i32 0, i32 0, i64 0, i64 0, i64 0, i32 0, null, metadata !867, i32 0, i32 0} ; [ DW_TAG_subroutine_type ]
!867 = metadata !{metadata !868, metadata !791, metadata !803}
!868 = metadata !{i32 786448, null, null, null, i32 0, i64 0, i64 0, i64 0, i32 0, metadata !774} ; [ DW_TAG_reference_type ]
!869 = metadata !{i32 786478, i32 0, metadata !774, metadata !"operator=", metadata !"operator=", metadata !"_ZN11ap_int_baseILi4ELb1ELb1EEaSERKS0_", metadata !135, i32 1639, metadata !870, i1 false, i1 false, i32 0, i32 0, null, i32 256, i1 false, null, null, i32 0, metadata !147, i32 1639} ; [ DW_TAG_subprogram ]
!870 = metadata !{i32 786453, i32 0, metadata !"", i32 0, i32 0, i64 0, i64 0, i64 0, i32 0, null, metadata !871, i32 0, i32 0} ; [ DW_TAG_subroutine_type ]
!871 = metadata !{metadata !868, metadata !791, metadata !795}
!872 = metadata !{i32 786478, i32 0, metadata !774, metadata !"operator=", metadata !"operator=", metadata !"_ZN11ap_int_baseILi4ELb1ELb1EEaSEPKc", metadata !135, i32 1643, metadata !873, i1 false, i1 false, i32 0, i32 0, null, i32 256, i1 false, null, null, i32 0, metadata !147, i32 1643} ; [ DW_TAG_subprogram ]
!873 = metadata !{i32 786453, i32 0, metadata !"", i32 0, i32 0, i64 0, i64 0, i64 0, i32 0, null, metadata !874, i32 0, i32 0} ; [ DW_TAG_subroutine_type ]
!874 = metadata !{metadata !868, metadata !791, metadata !237}
!875 = metadata !{i32 786478, i32 0, metadata !774, metadata !"set", metadata !"set", metadata !"_ZN11ap_int_baseILi4ELb1ELb1EE3setEPKca", metadata !135, i32 1651, metadata !876, i1 false, i1 false, i32 0, i32 0, null, i32 256, i1 false, null, null, i32 0, metadata !147, i32 1651} ; [ DW_TAG_subprogram ]
!876 = metadata !{i32 786453, i32 0, metadata !"", i32 0, i32 0, i64 0, i64 0, i64 0, i32 0, null, metadata !877, i32 0, i32 0} ; [ DW_TAG_subroutine_type ]
!877 = metadata !{metadata !868, metadata !791, metadata !237, metadata !183}
!878 = metadata !{i32 786478, i32 0, metadata !774, metadata !"operator=", metadata !"operator=", metadata !"_ZN11ap_int_baseILi4ELb1ELb1EEaSEa", metadata !135, i32 1665, metadata !879, i1 false, i1 false, i32 0, i32 0, null, i32 256, i1 false, null, null, i32 0, metadata !147, i32 1665} ; [ DW_TAG_subprogram ]
!879 = metadata !{i32 786453, i32 0, metadata !"", i32 0, i32 0, i64 0, i64 0, i64 0, i32 0, null, metadata !880, i32 0, i32 0} ; [ DW_TAG_subroutine_type ]
!880 = metadata !{metadata !868, metadata !791, metadata !183}
!881 = metadata !{i32 786478, i32 0, metadata !774, metadata !"operator=", metadata !"operator=", metadata !"_ZN11ap_int_baseILi4ELb1ELb1EEaSEh", metadata !135, i32 1666, metadata !882, i1 false, i1 false, i32 0, i32 0, null, i32 256, i1 false, null, null, i32 0, metadata !147, i32 1666} ; [ DW_TAG_subprogram ]
!882 = metadata !{i32 786453, i32 0, metadata !"", i32 0, i32 0, i64 0, i64 0, i64 0, i32 0, null, metadata !883, i32 0, i32 0} ; [ DW_TAG_subroutine_type ]
!883 = metadata !{metadata !868, metadata !791, metadata !187}
!884 = metadata !{i32 786478, i32 0, metadata !774, metadata !"operator=", metadata !"operator=", metadata !"_ZN11ap_int_baseILi4ELb1ELb1EEaSEs", metadata !135, i32 1667, metadata !885, i1 false, i1 false, i32 0, i32 0, null, i32 256, i1 false, null, null, i32 0, metadata !147, i32 1667} ; [ DW_TAG_subprogram ]
!885 = metadata !{i32 786453, i32 0, metadata !"", i32 0, i32 0, i64 0, i64 0, i64 0, i32 0, null, metadata !886, i32 0, i32 0} ; [ DW_TAG_subroutine_type ]
!886 = metadata !{metadata !868, metadata !791, metadata !191}
!887 = metadata !{i32 786478, i32 0, metadata !774, metadata !"operator=", metadata !"operator=", metadata !"_ZN11ap_int_baseILi4ELb1ELb1EEaSEt", metadata !135, i32 1668, metadata !888, i1 false, i1 false, i32 0, i32 0, null, i32 256, i1 false, null, null, i32 0, metadata !147, i32 1668} ; [ DW_TAG_subprogram ]
!888 = metadata !{i32 786453, i32 0, metadata !"", i32 0, i32 0, i64 0, i64 0, i64 0, i32 0, null, metadata !889, i32 0, i32 0} ; [ DW_TAG_subroutine_type ]
!889 = metadata !{metadata !868, metadata !791, metadata !195}
!890 = metadata !{i32 786478, i32 0, metadata !774, metadata !"operator=", metadata !"operator=", metadata !"_ZN11ap_int_baseILi4ELb1ELb1EEaSEi", metadata !135, i32 1669, metadata !891, i1 false, i1 false, i32 0, i32 0, null, i32 256, i1 false, null, null, i32 0, metadata !147, i32 1669} ; [ DW_TAG_subprogram ]
!891 = metadata !{i32 786453, i32 0, metadata !"", i32 0, i32 0, i64 0, i64 0, i64 0, i32 0, null, metadata !892, i32 0, i32 0} ; [ DW_TAG_subroutine_type ]
!892 = metadata !{metadata !868, metadata !791, metadata !156}
!893 = metadata !{i32 786478, i32 0, metadata !774, metadata !"operator=", metadata !"operator=", metadata !"_ZN11ap_int_baseILi4ELb1ELb1EEaSEj", metadata !135, i32 1670, metadata !894, i1 false, i1 false, i32 0, i32 0, null, i32 256, i1 false, null, null, i32 0, metadata !147, i32 1670} ; [ DW_TAG_subprogram ]
!894 = metadata !{i32 786453, i32 0, metadata !"", i32 0, i32 0, i64 0, i64 0, i64 0, i32 0, null, metadata !895, i32 0, i32 0} ; [ DW_TAG_subroutine_type ]
!895 = metadata !{metadata !868, metadata !791, metadata !202}
!896 = metadata !{i32 786478, i32 0, metadata !774, metadata !"operator=", metadata !"operator=", metadata !"_ZN11ap_int_baseILi4ELb1ELb1EEaSEx", metadata !135, i32 1671, metadata !897, i1 false, i1 false, i32 0, i32 0, null, i32 256, i1 false, null, null, i32 0, metadata !147, i32 1671} ; [ DW_TAG_subprogram ]
!897 = metadata !{i32 786453, i32 0, metadata !"", i32 0, i32 0, i64 0, i64 0, i64 0, i32 0, null, metadata !898, i32 0, i32 0} ; [ DW_TAG_subroutine_type ]
!898 = metadata !{metadata !868, metadata !791, metadata !214}
!899 = metadata !{i32 786478, i32 0, metadata !774, metadata !"operator=", metadata !"operator=", metadata !"_ZN11ap_int_baseILi4ELb1ELb1EEaSEy", metadata !135, i32 1672, metadata !900, i1 false, i1 false, i32 0, i32 0, null, i32 256, i1 false, null, null, i32 0, metadata !147, i32 1672} ; [ DW_TAG_subprogram ]
!900 = metadata !{i32 786453, i32 0, metadata !"", i32 0, i32 0, i64 0, i64 0, i64 0, i32 0, null, metadata !901, i32 0, i32 0} ; [ DW_TAG_subroutine_type ]
!901 = metadata !{metadata !868, metadata !791, metadata !219}
!902 = metadata !{i32 786478, i32 0, metadata !774, metadata !"operator signed char", metadata !"operator signed char", metadata !"_ZNK11ap_int_baseILi4ELb1ELb1EEcvaEv", metadata !135, i32 1710, metadata !903, i1 false, i1 false, i32 0, i32 0, null, i32 256, i1 false, null, null, i32 0, metadata !147, i32 1710} ; [ DW_TAG_subprogram ]
!903 = metadata !{i32 786453, i32 0, metadata !"", i32 0, i32 0, i64 0, i64 0, i64 0, i32 0, null, metadata !904, i32 0, i32 0} ; [ DW_TAG_subroutine_type ]
!904 = metadata !{metadata !905, metadata !909}
!905 = metadata !{i32 786454, metadata !774, metadata !"RetType", metadata !135, i32 1458, i64 0, i64 0, i64 0, i32 0, metadata !906} ; [ DW_TAG_typedef ]
!906 = metadata !{i32 786454, metadata !907, metadata !"Type", metadata !135, i32 1423, i64 0, i64 0, i64 0, i32 0, metadata !183} ; [ DW_TAG_typedef ]
!907 = metadata !{i32 786434, null, metadata !"retval<1, true>", metadata !135, i32 1422, i64 8, i64 8, i32 0, i32 0, null, metadata !297, i32 0, null, metadata !908} ; [ DW_TAG_class_type ]
!908 = metadata !{metadata !695, metadata !787}
!909 = metadata !{i32 786447, i32 0, metadata !"", i32 0, i32 0, i64 64, i64 64, i64 0, i32 64, metadata !796} ; [ DW_TAG_pointer_type ]
!910 = metadata !{i32 786478, i32 0, metadata !774, metadata !"to_bool", metadata !"to_bool", metadata !"_ZNK11ap_int_baseILi4ELb1ELb1EE7to_boolEv", metadata !135, i32 1716, metadata !911, i1 false, i1 false, i32 0, i32 0, null, i32 256, i1 false, null, null, i32 0, metadata !147, i32 1716} ; [ DW_TAG_subprogram ]
!911 = metadata !{i32 786453, i32 0, metadata !"", i32 0, i32 0, i64 0, i64 0, i64 0, i32 0, null, metadata !912, i32 0, i32 0} ; [ DW_TAG_subroutine_type ]
!912 = metadata !{metadata !158, metadata !909}
!913 = metadata !{i32 786478, i32 0, metadata !774, metadata !"to_uchar", metadata !"to_uchar", metadata !"_ZNK11ap_int_baseILi4ELb1ELb1EE8to_ucharEv", metadata !135, i32 1717, metadata !914, i1 false, i1 false, i32 0, i32 0, null, i32 256, i1 false, null, null, i32 0, metadata !147, i32 1717} ; [ DW_TAG_subprogram ]
!914 = metadata !{i32 786453, i32 0, metadata !"", i32 0, i32 0, i64 0, i64 0, i64 0, i32 0, null, metadata !915, i32 0, i32 0} ; [ DW_TAG_subroutine_type ]
!915 = metadata !{metadata !187, metadata !909}
!916 = metadata !{i32 786478, i32 0, metadata !774, metadata !"to_char", metadata !"to_char", metadata !"_ZNK11ap_int_baseILi4ELb1ELb1EE7to_charEv", metadata !135, i32 1718, metadata !917, i1 false, i1 false, i32 0, i32 0, null, i32 256, i1 false, null, null, i32 0, metadata !147, i32 1718} ; [ DW_TAG_subprogram ]
!917 = metadata !{i32 786453, i32 0, metadata !"", i32 0, i32 0, i64 0, i64 0, i64 0, i32 0, null, metadata !918, i32 0, i32 0} ; [ DW_TAG_subroutine_type ]
!918 = metadata !{metadata !183, metadata !909}
!919 = metadata !{i32 786478, i32 0, metadata !774, metadata !"to_ushort", metadata !"to_ushort", metadata !"_ZNK11ap_int_baseILi4ELb1ELb1EE9to_ushortEv", metadata !135, i32 1719, metadata !920, i1 false, i1 false, i32 0, i32 0, null, i32 256, i1 false, null, null, i32 0, metadata !147, i32 1719} ; [ DW_TAG_subprogram ]
!920 = metadata !{i32 786453, i32 0, metadata !"", i32 0, i32 0, i64 0, i64 0, i64 0, i32 0, null, metadata !921, i32 0, i32 0} ; [ DW_TAG_subroutine_type ]
!921 = metadata !{metadata !195, metadata !909}
!922 = metadata !{i32 786478, i32 0, metadata !774, metadata !"to_short", metadata !"to_short", metadata !"_ZNK11ap_int_baseILi4ELb1ELb1EE8to_shortEv", metadata !135, i32 1720, metadata !923, i1 false, i1 false, i32 0, i32 0, null, i32 256, i1 false, null, null, i32 0, metadata !147, i32 1720} ; [ DW_TAG_subprogram ]
!923 = metadata !{i32 786453, i32 0, metadata !"", i32 0, i32 0, i64 0, i64 0, i64 0, i32 0, null, metadata !924, i32 0, i32 0} ; [ DW_TAG_subroutine_type ]
!924 = metadata !{metadata !191, metadata !909}
!925 = metadata !{i32 786478, i32 0, metadata !774, metadata !"to_int", metadata !"to_int", metadata !"_ZNK11ap_int_baseILi4ELb1ELb1EE6to_intEv", metadata !135, i32 1721, metadata !926, i1 false, i1 false, i32 0, i32 0, null, i32 256, i1 false, null, null, i32 0, metadata !147, i32 1721} ; [ DW_TAG_subprogram ]
!926 = metadata !{i32 786453, i32 0, metadata !"", i32 0, i32 0, i64 0, i64 0, i64 0, i32 0, null, metadata !927, i32 0, i32 0} ; [ DW_TAG_subroutine_type ]
!927 = metadata !{metadata !156, metadata !909}
!928 = metadata !{i32 786478, i32 0, metadata !774, metadata !"to_uint", metadata !"to_uint", metadata !"_ZNK11ap_int_baseILi4ELb1ELb1EE7to_uintEv", metadata !135, i32 1722, metadata !929, i1 false, i1 false, i32 0, i32 0, null, i32 256, i1 false, null, null, i32 0, metadata !147, i32 1722} ; [ DW_TAG_subprogram ]
!929 = metadata !{i32 786453, i32 0, metadata !"", i32 0, i32 0, i64 0, i64 0, i64 0, i32 0, null, metadata !930, i32 0, i32 0} ; [ DW_TAG_subroutine_type ]
!930 = metadata !{metadata !202, metadata !909}
!931 = metadata !{i32 786478, i32 0, metadata !774, metadata !"to_long", metadata !"to_long", metadata !"_ZNK11ap_int_baseILi4ELb1ELb1EE7to_longEv", metadata !135, i32 1723, metadata !932, i1 false, i1 false, i32 0, i32 0, null, i32 256, i1 false, null, null, i32 0, metadata !147, i32 1723} ; [ DW_TAG_subprogram ]
!932 = metadata !{i32 786453, i32 0, metadata !"", i32 0, i32 0, i64 0, i64 0, i64 0, i32 0, null, metadata !933, i32 0, i32 0} ; [ DW_TAG_subroutine_type ]
!933 = metadata !{metadata !206, metadata !909}
!934 = metadata !{i32 786478, i32 0, metadata !774, metadata !"to_ulong", metadata !"to_ulong", metadata !"_ZNK11ap_int_baseILi4ELb1ELb1EE8to_ulongEv", metadata !135, i32 1724, metadata !935, i1 false, i1 false, i32 0, i32 0, null, i32 256, i1 false, null, null, i32 0, metadata !147, i32 1724} ; [ DW_TAG_subprogram ]
!935 = metadata !{i32 786453, i32 0, metadata !"", i32 0, i32 0, i64 0, i64 0, i64 0, i32 0, null, metadata !936, i32 0, i32 0} ; [ DW_TAG_subroutine_type ]
!936 = metadata !{metadata !210, metadata !909}
!937 = metadata !{i32 786478, i32 0, metadata !774, metadata !"to_int64", metadata !"to_int64", metadata !"_ZNK11ap_int_baseILi4ELb1ELb1EE8to_int64Ev", metadata !135, i32 1725, metadata !938, i1 false, i1 false, i32 0, i32 0, null, i32 256, i1 false, null, null, i32 0, metadata !147, i32 1725} ; [ DW_TAG_subprogram ]
!938 = metadata !{i32 786453, i32 0, metadata !"", i32 0, i32 0, i64 0, i64 0, i64 0, i32 0, null, metadata !939, i32 0, i32 0} ; [ DW_TAG_subroutine_type ]
!939 = metadata !{metadata !214, metadata !909}
!940 = metadata !{i32 786478, i32 0, metadata !774, metadata !"to_uint64", metadata !"to_uint64", metadata !"_ZNK11ap_int_baseILi4ELb1ELb1EE9to_uint64Ev", metadata !135, i32 1726, metadata !941, i1 false, i1 false, i32 0, i32 0, null, i32 256, i1 false, null, null, i32 0, metadata !147, i32 1726} ; [ DW_TAG_subprogram ]
!941 = metadata !{i32 786453, i32 0, metadata !"", i32 0, i32 0, i64 0, i64 0, i64 0, i32 0, null, metadata !942, i32 0, i32 0} ; [ DW_TAG_subroutine_type ]
!942 = metadata !{metadata !219, metadata !909}
!943 = metadata !{i32 786478, i32 0, metadata !774, metadata !"to_double", metadata !"to_double", metadata !"_ZNK11ap_int_baseILi4ELb1ELb1EE9to_doubleEv", metadata !135, i32 1727, metadata !944, i1 false, i1 false, i32 0, i32 0, null, i32 256, i1 false, null, null, i32 0, metadata !147, i32 1727} ; [ DW_TAG_subprogram ]
!944 = metadata !{i32 786453, i32 0, metadata !"", i32 0, i32 0, i64 0, i64 0, i64 0, i32 0, null, metadata !945, i32 0, i32 0} ; [ DW_TAG_subroutine_type ]
!945 = metadata !{metadata !233, metadata !909}
!946 = metadata !{i32 786478, i32 0, metadata !774, metadata !"length", metadata !"length", metadata !"_ZNK11ap_int_baseILi4ELb1ELb1EE6lengthEv", metadata !135, i32 1741, metadata !926, i1 false, i1 false, i32 0, i32 0, null, i32 256, i1 false, null, null, i32 0, metadata !147, i32 1741} ; [ DW_TAG_subprogram ]
!947 = metadata !{i32 786478, i32 0, metadata !774, metadata !"length", metadata !"length", metadata !"_ZNVK11ap_int_baseILi4ELb1ELb1EE6lengthEv", metadata !135, i32 1742, metadata !948, i1 false, i1 false, i32 0, i32 0, null, i32 256, i1 false, null, null, i32 0, metadata !147, i32 1742} ; [ DW_TAG_subprogram ]
!948 = metadata !{i32 786453, i32 0, metadata !"", i32 0, i32 0, i64 0, i64 0, i64 0, i32 0, null, metadata !949, i32 0, i32 0} ; [ DW_TAG_subroutine_type ]
!949 = metadata !{metadata !156, metadata !950}
!950 = metadata !{i32 786447, i32 0, metadata !"", i32 0, i32 0, i64 64, i64 64, i64 0, i32 64, metadata !804} ; [ DW_TAG_pointer_type ]
!951 = metadata !{i32 786478, i32 0, metadata !774, metadata !"reverse", metadata !"reverse", metadata !"_ZN11ap_int_baseILi4ELb1ELb1EE7reverseEv", metadata !135, i32 1747, metadata !952, i1 false, i1 false, i32 0, i32 0, null, i32 256, i1 false, null, null, i32 0, metadata !147, i32 1747} ; [ DW_TAG_subprogram ]
!952 = metadata !{i32 786453, i32 0, metadata !"", i32 0, i32 0, i64 0, i64 0, i64 0, i32 0, null, metadata !953, i32 0, i32 0} ; [ DW_TAG_subroutine_type ]
!953 = metadata !{metadata !868, metadata !791}
!954 = metadata !{i32 786478, i32 0, metadata !774, metadata !"iszero", metadata !"iszero", metadata !"_ZNK11ap_int_baseILi4ELb1ELb1EE6iszeroEv", metadata !135, i32 1753, metadata !911, i1 false, i1 false, i32 0, i32 0, null, i32 256, i1 false, null, null, i32 0, metadata !147, i32 1753} ; [ DW_TAG_subprogram ]
!955 = metadata !{i32 786478, i32 0, metadata !774, metadata !"is_zero", metadata !"is_zero", metadata !"_ZNK11ap_int_baseILi4ELb1ELb1EE7is_zeroEv", metadata !135, i32 1758, metadata !911, i1 false, i1 false, i32 0, i32 0, null, i32 256, i1 false, null, null, i32 0, metadata !147, i32 1758} ; [ DW_TAG_subprogram ]
!956 = metadata !{i32 786478, i32 0, metadata !774, metadata !"sign", metadata !"sign", metadata !"_ZNK11ap_int_baseILi4ELb1ELb1EE4signEv", metadata !135, i32 1763, metadata !911, i1 false, i1 false, i32 0, i32 0, null, i32 256, i1 false, null, null, i32 0, metadata !147, i32 1763} ; [ DW_TAG_subprogram ]
!957 = metadata !{i32 786478, i32 0, metadata !774, metadata !"clear", metadata !"clear", metadata !"_ZN11ap_int_baseILi4ELb1ELb1EE5clearEi", metadata !135, i32 1771, metadata !822, i1 false, i1 false, i32 0, i32 0, null, i32 256, i1 false, null, null, i32 0, metadata !147, i32 1771} ; [ DW_TAG_subprogram ]
!958 = metadata !{i32 786478, i32 0, metadata !774, metadata !"invert", metadata !"invert", metadata !"_ZN11ap_int_baseILi4ELb1ELb1EE6invertEi", metadata !135, i32 1777, metadata !822, i1 false, i1 false, i32 0, i32 0, null, i32 256, i1 false, null, null, i32 0, metadata !147, i32 1777} ; [ DW_TAG_subprogram ]
!959 = metadata !{i32 786478, i32 0, metadata !774, metadata !"test", metadata !"test", metadata !"_ZNK11ap_int_baseILi4ELb1ELb1EE4testEi", metadata !135, i32 1785, metadata !960, i1 false, i1 false, i32 0, i32 0, null, i32 256, i1 false, null, null, i32 0, metadata !147, i32 1785} ; [ DW_TAG_subprogram ]
!960 = metadata !{i32 786453, i32 0, metadata !"", i32 0, i32 0, i64 0, i64 0, i64 0, i32 0, null, metadata !961, i32 0, i32 0} ; [ DW_TAG_subroutine_type ]
!961 = metadata !{metadata !158, metadata !909, metadata !156}
!962 = metadata !{i32 786478, i32 0, metadata !774, metadata !"set", metadata !"set", metadata !"_ZN11ap_int_baseILi4ELb1ELb1EE3setEi", metadata !135, i32 1791, metadata !822, i1 false, i1 false, i32 0, i32 0, null, i32 256, i1 false, null, null, i32 0, metadata !147, i32 1791} ; [ DW_TAG_subprogram ]
!963 = metadata !{i32 786478, i32 0, metadata !774, metadata !"set", metadata !"set", metadata !"_ZN11ap_int_baseILi4ELb1ELb1EE3setEib", metadata !135, i32 1797, metadata !964, i1 false, i1 false, i32 0, i32 0, null, i32 256, i1 false, null, null, i32 0, metadata !147, i32 1797} ; [ DW_TAG_subprogram ]
!964 = metadata !{i32 786453, i32 0, metadata !"", i32 0, i32 0, i64 0, i64 0, i64 0, i32 0, null, metadata !965, i32 0, i32 0} ; [ DW_TAG_subroutine_type ]
!965 = metadata !{null, metadata !791, metadata !156, metadata !158}
!966 = metadata !{i32 786478, i32 0, metadata !774, metadata !"lrotate", metadata !"lrotate", metadata !"_ZN11ap_int_baseILi4ELb1ELb1EE7lrotateEi", metadata !135, i32 1804, metadata !822, i1 false, i1 false, i32 0, i32 0, null, i32 256, i1 false, null, null, i32 0, metadata !147, i32 1804} ; [ DW_TAG_subprogram ]
!967 = metadata !{i32 786478, i32 0, metadata !774, metadata !"rrotate", metadata !"rrotate", metadata !"_ZN11ap_int_baseILi4ELb1ELb1EE7rrotateEi", metadata !135, i32 1813, metadata !822, i1 false, i1 false, i32 0, i32 0, null, i32 256, i1 false, null, null, i32 0, metadata !147, i32 1813} ; [ DW_TAG_subprogram ]
!968 = metadata !{i32 786478, i32 0, metadata !774, metadata !"set_bit", metadata !"set_bit", metadata !"_ZN11ap_int_baseILi4ELb1ELb1EE7set_bitEib", metadata !135, i32 1821, metadata !964, i1 false, i1 false, i32 0, i32 0, null, i32 256, i1 false, null, null, i32 0, metadata !147, i32 1821} ; [ DW_TAG_subprogram ]
!969 = metadata !{i32 786478, i32 0, metadata !774, metadata !"get_bit", metadata !"get_bit", metadata !"_ZNK11ap_int_baseILi4ELb1ELb1EE7get_bitEi", metadata !135, i32 1826, metadata !960, i1 false, i1 false, i32 0, i32 0, null, i32 256, i1 false, null, null, i32 0, metadata !147, i32 1826} ; [ DW_TAG_subprogram ]
!970 = metadata !{i32 786478, i32 0, metadata !774, metadata !"b_not", metadata !"b_not", metadata !"_ZN11ap_int_baseILi4ELb1ELb1EE5b_notEv", metadata !135, i32 1831, metadata !789, i1 false, i1 false, i32 0, i32 0, null, i32 256, i1 false, null, null, i32 0, metadata !147, i32 1831} ; [ DW_TAG_subprogram ]
!971 = metadata !{i32 786478, i32 0, metadata !774, metadata !"countLeadingZeros", metadata !"countLeadingZeros", metadata !"_ZN11ap_int_baseILi4ELb1ELb1EE17countLeadingZerosEv", metadata !135, i32 1838, metadata !972, i1 false, i1 false, i32 0, i32 0, null, i32 256, i1 false, null, null, i32 0, metadata !147, i32 1838} ; [ DW_TAG_subprogram ]
!972 = metadata !{i32 786453, i32 0, metadata !"", i32 0, i32 0, i64 0, i64 0, i64 0, i32 0, null, metadata !973, i32 0, i32 0} ; [ DW_TAG_subroutine_type ]
!973 = metadata !{metadata !156, metadata !791}
!974 = metadata !{i32 786478, i32 0, metadata !774, metadata !"operator++", metadata !"operator++", metadata !"_ZN11ap_int_baseILi4ELb1ELb1EEppEv", metadata !135, i32 1895, metadata !952, i1 false, i1 false, i32 0, i32 0, null, i32 256, i1 false, null, null, i32 0, metadata !147, i32 1895} ; [ DW_TAG_subprogram ]
!975 = metadata !{i32 786478, i32 0, metadata !774, metadata !"operator--", metadata !"operator--", metadata !"_ZN11ap_int_baseILi4ELb1ELb1EEmmEv", metadata !135, i32 1899, metadata !952, i1 false, i1 false, i32 0, i32 0, null, i32 256, i1 false, null, null, i32 0, metadata !147, i32 1899} ; [ DW_TAG_subprogram ]
!976 = metadata !{i32 786478, i32 0, metadata !774, metadata !"operator++", metadata !"operator++", metadata !"_ZN11ap_int_baseILi4ELb1ELb1EEppEi", metadata !135, i32 1907, metadata !977, i1 false, i1 false, i32 0, i32 0, null, i32 256, i1 false, null, null, i32 0, metadata !147, i32 1907} ; [ DW_TAG_subprogram ]
!977 = metadata !{i32 786453, i32 0, metadata !"", i32 0, i32 0, i64 0, i64 0, i64 0, i32 0, null, metadata !978, i32 0, i32 0} ; [ DW_TAG_subroutine_type ]
!978 = metadata !{metadata !796, metadata !791, metadata !156}
!979 = metadata !{i32 786478, i32 0, metadata !774, metadata !"operator--", metadata !"operator--", metadata !"_ZN11ap_int_baseILi4ELb1ELb1EEmmEi", metadata !135, i32 1912, metadata !977, i1 false, i1 false, i32 0, i32 0, null, i32 256, i1 false, null, null, i32 0, metadata !147, i32 1912} ; [ DW_TAG_subprogram ]
!980 = metadata !{i32 786478, i32 0, metadata !774, metadata !"operator+", metadata !"operator+", metadata !"_ZNK11ap_int_baseILi4ELb1ELb1EEpsEv", metadata !135, i32 1921, metadata !981, i1 false, i1 false, i32 0, i32 0, null, i32 256, i1 false, null, null, i32 0, metadata !147, i32 1921} ; [ DW_TAG_subprogram ]
!981 = metadata !{i32 786453, i32 0, metadata !"", i32 0, i32 0, i64 0, i64 0, i64 0, i32 0, null, metadata !982, i32 0, i32 0} ; [ DW_TAG_subroutine_type ]
!982 = metadata !{metadata !774, metadata !909}
!983 = metadata !{i32 786478, i32 0, metadata !774, metadata !"operator!", metadata !"operator!", metadata !"_ZNK11ap_int_baseILi4ELb1ELb1EEntEv", metadata !135, i32 1927, metadata !911, i1 false, i1 false, i32 0, i32 0, null, i32 256, i1 false, null, null, i32 0, metadata !147, i32 1927} ; [ DW_TAG_subprogram ]
!984 = metadata !{i32 786478, i32 0, metadata !774, metadata !"operator-", metadata !"operator-", metadata !"_ZNK11ap_int_baseILi4ELb1ELb1EEngEv", metadata !135, i32 1932, metadata !985, i1 false, i1 false, i32 0, i32 0, null, i32 256, i1 false, null, null, i32 0, metadata !147, i32 1932} ; [ DW_TAG_subprogram ]
!985 = metadata !{i32 786453, i32 0, metadata !"", i32 0, i32 0, i64 0, i64 0, i64 0, i32 0, null, metadata !986, i32 0, i32 0} ; [ DW_TAG_subroutine_type ]
!986 = metadata !{metadata !987, metadata !909}
!987 = metadata !{i32 786434, null, metadata !"ap_int_base<5, true, true>", metadata !135, i32 1453, i64 8, i64 8, i32 0, i32 0, null, metadata !988, i32 0, null, metadata !1235} ; [ DW_TAG_class_type ]
!988 = metadata !{metadata !989, metadata !1000, metadata !1004, metadata !1011, metadata !1017, metadata !1020, metadata !1023, metadata !1026, metadata !1029, metadata !1032, metadata !1035, metadata !1038, metadata !1041, metadata !1044, metadata !1047, metadata !1050, metadata !1053, metadata !1056, metadata !1059, metadata !1062, metadata !1065, metadata !1069, metadata !1072, metadata !1075, metadata !1076, metadata !1080, metadata !1083, metadata !1086, metadata !1089, metadata !1092, metadata !1095, metadata !1098, metadata !1101, metadata !1104, metadata !1107, metadata !1110, metadata !1113, metadata !1118, metadata !1121, metadata !1124, metadata !1127, metadata !1130, metadata !1133, metadata !1136, metadata !1139, metadata !1142, metadata !1145, metadata !1148, metadata !1151, metadata !1154, metadata !1155, metadata !1159, metadata !1162, metadata !1163, metadata !1164, metadata !1165, metadata !1166, metadata !1167, metadata !1170, metadata !1171, metadata !1174, metadata !1175, metadata !1176, metadata !1177, metadata !1178, metadata !1179, metadata !1182, metadata !1183, metadata !1184, metadata !1187, metadata !1188, metadata !1191, metadata !1192, metadata !1196, metadata !1200, metadata !1201, metadata !1204, metadata !1205, metadata !1209, metadata !1210, metadata !1211, metadata !1212, metadata !1215, metadata !1216, metadata !1217, metadata !1218, metadata !1219, metadata !1220, metadata !1221, metadata !1222, metadata !1223, metadata !1224, metadata !1225, metadata !1226, metadata !1229, metadata !1232}
!989 = metadata !{i32 786460, metadata !987, null, metadata !135, i32 0, i64 0, i64 0, i64 0, i32 0, metadata !990} ; [ DW_TAG_inheritance ]
!990 = metadata !{i32 786434, null, metadata !"ssdm_int<5 + 1024 * 0, true>", metadata !139, i32 7, i64 8, i64 8, i32 0, i32 0, null, metadata !991, i32 0, null, metadata !998} ; [ DW_TAG_class_type ]
!991 = metadata !{metadata !992, metadata !994}
!992 = metadata !{i32 786445, metadata !990, metadata !"V", metadata !139, i32 7, i64 5, i64 8, i64 0, i32 0, metadata !993} ; [ DW_TAG_member ]
!993 = metadata !{i32 786468, null, metadata !"int5", null, i32 0, i64 5, i64 8, i64 0, i32 0, i32 5} ; [ DW_TAG_base_type ]
!994 = metadata !{i32 786478, i32 0, metadata !990, metadata !"ssdm_int", metadata !"ssdm_int", metadata !"", metadata !139, i32 7, metadata !995, i1 false, i1 false, i32 0, i32 0, null, i32 256, i1 false, null, null, i32 0, metadata !147, i32 7} ; [ DW_TAG_subprogram ]
!995 = metadata !{i32 786453, i32 0, metadata !"", i32 0, i32 0, i64 0, i64 0, i64 0, i32 0, null, metadata !996, i32 0, i32 0} ; [ DW_TAG_subroutine_type ]
!996 = metadata !{null, metadata !997}
!997 = metadata !{i32 786447, i32 0, metadata !"", i32 0, i32 0, i64 64, i64 64, i64 0, i32 64, metadata !990} ; [ DW_TAG_pointer_type ]
!998 = metadata !{metadata !999, metadata !787}
!999 = metadata !{i32 786480, null, metadata !"_AP_N", metadata !156, i64 5, null, i32 0, i32 0} ; [ DW_TAG_template_value_parameter ]
!1000 = metadata !{i32 786478, i32 0, metadata !987, metadata !"ap_int_base", metadata !"ap_int_base", metadata !"", metadata !135, i32 1494, metadata !1001, i1 false, i1 false, i32 0, i32 0, null, i32 256, i1 false, null, null, i32 0, metadata !147, i32 1494} ; [ DW_TAG_subprogram ]
!1001 = metadata !{i32 786453, i32 0, metadata !"", i32 0, i32 0, i64 0, i64 0, i64 0, i32 0, null, metadata !1002, i32 0, i32 0} ; [ DW_TAG_subroutine_type ]
!1002 = metadata !{null, metadata !1003}
!1003 = metadata !{i32 786447, i32 0, metadata !"", i32 0, i32 0, i64 64, i64 64, i64 0, i32 64, metadata !987} ; [ DW_TAG_pointer_type ]
!1004 = metadata !{i32 786478, i32 0, metadata !987, metadata !"ap_int_base<5, true>", metadata !"ap_int_base<5, true>", metadata !"", metadata !135, i32 1506, metadata !1005, i1 false, i1 false, i32 0, i32 0, null, i32 256, i1 false, null, metadata !1009, i32 0, metadata !147, i32 1506} ; [ DW_TAG_subprogram ]
!1005 = metadata !{i32 786453, i32 0, metadata !"", i32 0, i32 0, i64 0, i64 0, i64 0, i32 0, null, metadata !1006, i32 0, i32 0} ; [ DW_TAG_subroutine_type ]
!1006 = metadata !{null, metadata !1003, metadata !1007}
!1007 = metadata !{i32 786448, null, null, null, i32 0, i64 0, i64 0, i64 0, i32 0, metadata !1008} ; [ DW_TAG_reference_type ]
!1008 = metadata !{i32 786470, null, metadata !"", null, i32 0, i64 0, i64 0, i64 0, i32 0, metadata !987} ; [ DW_TAG_const_type ]
!1009 = metadata !{metadata !1010, metadata !799}
!1010 = metadata !{i32 786480, null, metadata !"_AP_W2", metadata !156, i64 5, null, i32 0, i32 0} ; [ DW_TAG_template_value_parameter ]
!1011 = metadata !{i32 786478, i32 0, metadata !987, metadata !"ap_int_base<5, true>", metadata !"ap_int_base<5, true>", metadata !"", metadata !135, i32 1509, metadata !1012, i1 false, i1 false, i32 0, i32 0, null, i32 256, i1 false, null, metadata !1009, i32 0, metadata !147, i32 1509} ; [ DW_TAG_subprogram ]
!1012 = metadata !{i32 786453, i32 0, metadata !"", i32 0, i32 0, i64 0, i64 0, i64 0, i32 0, null, metadata !1013, i32 0, i32 0} ; [ DW_TAG_subroutine_type ]
!1013 = metadata !{null, metadata !1003, metadata !1014}
!1014 = metadata !{i32 786448, null, null, null, i32 0, i64 0, i64 0, i64 0, i32 0, metadata !1015} ; [ DW_TAG_reference_type ]
!1015 = metadata !{i32 786470, null, metadata !"", null, i32 0, i64 0, i64 0, i64 0, i32 0, metadata !1016} ; [ DW_TAG_const_type ]
!1016 = metadata !{i32 786485, null, metadata !"", null, i32 0, i64 0, i64 0, i64 0, i32 0, metadata !987} ; [ DW_TAG_volatile_type ]
!1017 = metadata !{i32 786478, i32 0, metadata !987, metadata !"ap_int_base", metadata !"ap_int_base", metadata !"", metadata !135, i32 1516, metadata !1018, i1 false, i1 false, i32 0, i32 0, null, i32 384, i1 false, null, null, i32 0, metadata !147, i32 1516} ; [ DW_TAG_subprogram ]
!1018 = metadata !{i32 786453, i32 0, metadata !"", i32 0, i32 0, i64 0, i64 0, i64 0, i32 0, null, metadata !1019, i32 0, i32 0} ; [ DW_TAG_subroutine_type ]
!1019 = metadata !{null, metadata !1003, metadata !158}
!1020 = metadata !{i32 786478, i32 0, metadata !987, metadata !"ap_int_base", metadata !"ap_int_base", metadata !"", metadata !135, i32 1517, metadata !1021, i1 false, i1 false, i32 0, i32 0, null, i32 384, i1 false, null, null, i32 0, metadata !147, i32 1517} ; [ DW_TAG_subprogram ]
!1021 = metadata !{i32 786453, i32 0, metadata !"", i32 0, i32 0, i64 0, i64 0, i64 0, i32 0, null, metadata !1022, i32 0, i32 0} ; [ DW_TAG_subroutine_type ]
!1022 = metadata !{null, metadata !1003, metadata !183}
!1023 = metadata !{i32 786478, i32 0, metadata !987, metadata !"ap_int_base", metadata !"ap_int_base", metadata !"", metadata !135, i32 1518, metadata !1024, i1 false, i1 false, i32 0, i32 0, null, i32 384, i1 false, null, null, i32 0, metadata !147, i32 1518} ; [ DW_TAG_subprogram ]
!1024 = metadata !{i32 786453, i32 0, metadata !"", i32 0, i32 0, i64 0, i64 0, i64 0, i32 0, null, metadata !1025, i32 0, i32 0} ; [ DW_TAG_subroutine_type ]
!1025 = metadata !{null, metadata !1003, metadata !187}
!1026 = metadata !{i32 786478, i32 0, metadata !987, metadata !"ap_int_base", metadata !"ap_int_base", metadata !"", metadata !135, i32 1519, metadata !1027, i1 false, i1 false, i32 0, i32 0, null, i32 384, i1 false, null, null, i32 0, metadata !147, i32 1519} ; [ DW_TAG_subprogram ]
!1027 = metadata !{i32 786453, i32 0, metadata !"", i32 0, i32 0, i64 0, i64 0, i64 0, i32 0, null, metadata !1028, i32 0, i32 0} ; [ DW_TAG_subroutine_type ]
!1028 = metadata !{null, metadata !1003, metadata !191}
!1029 = metadata !{i32 786478, i32 0, metadata !987, metadata !"ap_int_base", metadata !"ap_int_base", metadata !"", metadata !135, i32 1520, metadata !1030, i1 false, i1 false, i32 0, i32 0, null, i32 384, i1 false, null, null, i32 0, metadata !147, i32 1520} ; [ DW_TAG_subprogram ]
!1030 = metadata !{i32 786453, i32 0, metadata !"", i32 0, i32 0, i64 0, i64 0, i64 0, i32 0, null, metadata !1031, i32 0, i32 0} ; [ DW_TAG_subroutine_type ]
!1031 = metadata !{null, metadata !1003, metadata !195}
!1032 = metadata !{i32 786478, i32 0, metadata !987, metadata !"ap_int_base", metadata !"ap_int_base", metadata !"", metadata !135, i32 1521, metadata !1033, i1 false, i1 false, i32 0, i32 0, null, i32 384, i1 false, null, null, i32 0, metadata !147, i32 1521} ; [ DW_TAG_subprogram ]
!1033 = metadata !{i32 786453, i32 0, metadata !"", i32 0, i32 0, i64 0, i64 0, i64 0, i32 0, null, metadata !1034, i32 0, i32 0} ; [ DW_TAG_subroutine_type ]
!1034 = metadata !{null, metadata !1003, metadata !156}
!1035 = metadata !{i32 786478, i32 0, metadata !987, metadata !"ap_int_base", metadata !"ap_int_base", metadata !"", metadata !135, i32 1522, metadata !1036, i1 false, i1 false, i32 0, i32 0, null, i32 384, i1 false, null, null, i32 0, metadata !147, i32 1522} ; [ DW_TAG_subprogram ]
!1036 = metadata !{i32 786453, i32 0, metadata !"", i32 0, i32 0, i64 0, i64 0, i64 0, i32 0, null, metadata !1037, i32 0, i32 0} ; [ DW_TAG_subroutine_type ]
!1037 = metadata !{null, metadata !1003, metadata !202}
!1038 = metadata !{i32 786478, i32 0, metadata !987, metadata !"ap_int_base", metadata !"ap_int_base", metadata !"", metadata !135, i32 1523, metadata !1039, i1 false, i1 false, i32 0, i32 0, null, i32 384, i1 false, null, null, i32 0, metadata !147, i32 1523} ; [ DW_TAG_subprogram ]
!1039 = metadata !{i32 786453, i32 0, metadata !"", i32 0, i32 0, i64 0, i64 0, i64 0, i32 0, null, metadata !1040, i32 0, i32 0} ; [ DW_TAG_subroutine_type ]
!1040 = metadata !{null, metadata !1003, metadata !206}
!1041 = metadata !{i32 786478, i32 0, metadata !987, metadata !"ap_int_base", metadata !"ap_int_base", metadata !"", metadata !135, i32 1524, metadata !1042, i1 false, i1 false, i32 0, i32 0, null, i32 384, i1 false, null, null, i32 0, metadata !147, i32 1524} ; [ DW_TAG_subprogram ]
!1042 = metadata !{i32 786453, i32 0, metadata !"", i32 0, i32 0, i64 0, i64 0, i64 0, i32 0, null, metadata !1043, i32 0, i32 0} ; [ DW_TAG_subroutine_type ]
!1043 = metadata !{null, metadata !1003, metadata !210}
!1044 = metadata !{i32 786478, i32 0, metadata !987, metadata !"ap_int_base", metadata !"ap_int_base", metadata !"", metadata !135, i32 1525, metadata !1045, i1 false, i1 false, i32 0, i32 0, null, i32 384, i1 false, null, null, i32 0, metadata !147, i32 1525} ; [ DW_TAG_subprogram ]
!1045 = metadata !{i32 786453, i32 0, metadata !"", i32 0, i32 0, i64 0, i64 0, i64 0, i32 0, null, metadata !1046, i32 0, i32 0} ; [ DW_TAG_subroutine_type ]
!1046 = metadata !{null, metadata !1003, metadata !214}
!1047 = metadata !{i32 786478, i32 0, metadata !987, metadata !"ap_int_base", metadata !"ap_int_base", metadata !"", metadata !135, i32 1526, metadata !1048, i1 false, i1 false, i32 0, i32 0, null, i32 384, i1 false, null, null, i32 0, metadata !147, i32 1526} ; [ DW_TAG_subprogram ]
!1048 = metadata !{i32 786453, i32 0, metadata !"", i32 0, i32 0, i64 0, i64 0, i64 0, i32 0, null, metadata !1049, i32 0, i32 0} ; [ DW_TAG_subroutine_type ]
!1049 = metadata !{null, metadata !1003, metadata !219}
!1050 = metadata !{i32 786478, i32 0, metadata !987, metadata !"ap_int_base", metadata !"ap_int_base", metadata !"", metadata !135, i32 1527, metadata !1051, i1 false, i1 false, i32 0, i32 0, null, i32 384, i1 false, null, null, i32 0, metadata !147, i32 1527} ; [ DW_TAG_subprogram ]
!1051 = metadata !{i32 786453, i32 0, metadata !"", i32 0, i32 0, i64 0, i64 0, i64 0, i32 0, null, metadata !1052, i32 0, i32 0} ; [ DW_TAG_subroutine_type ]
!1052 = metadata !{null, metadata !1003, metadata !224}
!1053 = metadata !{i32 786478, i32 0, metadata !987, metadata !"ap_int_base", metadata !"ap_int_base", metadata !"", metadata !135, i32 1528, metadata !1054, i1 false, i1 false, i32 0, i32 0, null, i32 384, i1 false, null, null, i32 0, metadata !147, i32 1528} ; [ DW_TAG_subprogram ]
!1054 = metadata !{i32 786453, i32 0, metadata !"", i32 0, i32 0, i64 0, i64 0, i64 0, i32 0, null, metadata !1055, i32 0, i32 0} ; [ DW_TAG_subroutine_type ]
!1055 = metadata !{null, metadata !1003, metadata !229}
!1056 = metadata !{i32 786478, i32 0, metadata !987, metadata !"ap_int_base", metadata !"ap_int_base", metadata !"", metadata !135, i32 1529, metadata !1057, i1 false, i1 false, i32 0, i32 0, null, i32 384, i1 false, null, null, i32 0, metadata !147, i32 1529} ; [ DW_TAG_subprogram ]
!1057 = metadata !{i32 786453, i32 0, metadata !"", i32 0, i32 0, i64 0, i64 0, i64 0, i32 0, null, metadata !1058, i32 0, i32 0} ; [ DW_TAG_subroutine_type ]
!1058 = metadata !{null, metadata !1003, metadata !233}
!1059 = metadata !{i32 786478, i32 0, metadata !987, metadata !"ap_int_base", metadata !"ap_int_base", metadata !"", metadata !135, i32 1556, metadata !1060, i1 false, i1 false, i32 0, i32 0, null, i32 256, i1 false, null, null, i32 0, metadata !147, i32 1556} ; [ DW_TAG_subprogram ]
!1060 = metadata !{i32 786453, i32 0, metadata !"", i32 0, i32 0, i64 0, i64 0, i64 0, i32 0, null, metadata !1061, i32 0, i32 0} ; [ DW_TAG_subroutine_type ]
!1061 = metadata !{null, metadata !1003, metadata !237}
!1062 = metadata !{i32 786478, i32 0, metadata !987, metadata !"ap_int_base", metadata !"ap_int_base", metadata !"", metadata !135, i32 1563, metadata !1063, i1 false, i1 false, i32 0, i32 0, null, i32 256, i1 false, null, null, i32 0, metadata !147, i32 1563} ; [ DW_TAG_subprogram ]
!1063 = metadata !{i32 786453, i32 0, metadata !"", i32 0, i32 0, i64 0, i64 0, i64 0, i32 0, null, metadata !1064, i32 0, i32 0} ; [ DW_TAG_subroutine_type ]
!1064 = metadata !{null, metadata !1003, metadata !237, metadata !183}
!1065 = metadata !{i32 786478, i32 0, metadata !987, metadata !"read", metadata !"read", metadata !"_ZNV11ap_int_baseILi5ELb1ELb1EE4readEv", metadata !135, i32 1584, metadata !1066, i1 false, i1 false, i32 0, i32 0, null, i32 256, i1 false, null, null, i32 0, metadata !147, i32 1584} ; [ DW_TAG_subprogram ]
!1066 = metadata !{i32 786453, i32 0, metadata !"", i32 0, i32 0, i64 0, i64 0, i64 0, i32 0, null, metadata !1067, i32 0, i32 0} ; [ DW_TAG_subroutine_type ]
!1067 = metadata !{metadata !987, metadata !1068}
!1068 = metadata !{i32 786447, i32 0, metadata !"", i32 0, i32 0, i64 64, i64 64, i64 0, i32 64, metadata !1016} ; [ DW_TAG_pointer_type ]
!1069 = metadata !{i32 786478, i32 0, metadata !987, metadata !"write", metadata !"write", metadata !"_ZNV11ap_int_baseILi5ELb1ELb1EE5writeERKS0_", metadata !135, i32 1590, metadata !1070, i1 false, i1 false, i32 0, i32 0, null, i32 256, i1 false, null, null, i32 0, metadata !147, i32 1590} ; [ DW_TAG_subprogram ]
!1070 = metadata !{i32 786453, i32 0, metadata !"", i32 0, i32 0, i64 0, i64 0, i64 0, i32 0, null, metadata !1071, i32 0, i32 0} ; [ DW_TAG_subroutine_type ]
!1071 = metadata !{null, metadata !1068, metadata !1007}
!1072 = metadata !{i32 786478, i32 0, metadata !987, metadata !"operator=", metadata !"operator=", metadata !"_ZNV11ap_int_baseILi5ELb1ELb1EEaSERVKS0_", metadata !135, i32 1602, metadata !1073, i1 false, i1 false, i32 0, i32 0, null, i32 256, i1 false, null, null, i32 0, metadata !147, i32 1602} ; [ DW_TAG_subprogram ]
!1073 = metadata !{i32 786453, i32 0, metadata !"", i32 0, i32 0, i64 0, i64 0, i64 0, i32 0, null, metadata !1074, i32 0, i32 0} ; [ DW_TAG_subroutine_type ]
!1074 = metadata !{null, metadata !1068, metadata !1014}
!1075 = metadata !{i32 786478, i32 0, metadata !987, metadata !"operator=", metadata !"operator=", metadata !"_ZNV11ap_int_baseILi5ELb1ELb1EEaSERKS0_", metadata !135, i32 1611, metadata !1070, i1 false, i1 false, i32 0, i32 0, null, i32 256, i1 false, null, null, i32 0, metadata !147, i32 1611} ; [ DW_TAG_subprogram ]
!1076 = metadata !{i32 786478, i32 0, metadata !987, metadata !"operator=", metadata !"operator=", metadata !"_ZN11ap_int_baseILi5ELb1ELb1EEaSERVKS0_", metadata !135, i32 1634, metadata !1077, i1 false, i1 false, i32 0, i32 0, null, i32 256, i1 false, null, null, i32 0, metadata !147, i32 1634} ; [ DW_TAG_subprogram ]
!1077 = metadata !{i32 786453, i32 0, metadata !"", i32 0, i32 0, i64 0, i64 0, i64 0, i32 0, null, metadata !1078, i32 0, i32 0} ; [ DW_TAG_subroutine_type ]
!1078 = metadata !{metadata !1079, metadata !1003, metadata !1014}
!1079 = metadata !{i32 786448, null, null, null, i32 0, i64 0, i64 0, i64 0, i32 0, metadata !987} ; [ DW_TAG_reference_type ]
!1080 = metadata !{i32 786478, i32 0, metadata !987, metadata !"operator=", metadata !"operator=", metadata !"_ZN11ap_int_baseILi5ELb1ELb1EEaSERKS0_", metadata !135, i32 1639, metadata !1081, i1 false, i1 false, i32 0, i32 0, null, i32 256, i1 false, null, null, i32 0, metadata !147, i32 1639} ; [ DW_TAG_subprogram ]
!1081 = metadata !{i32 786453, i32 0, metadata !"", i32 0, i32 0, i64 0, i64 0, i64 0, i32 0, null, metadata !1082, i32 0, i32 0} ; [ DW_TAG_subroutine_type ]
!1082 = metadata !{metadata !1079, metadata !1003, metadata !1007}
!1083 = metadata !{i32 786478, i32 0, metadata !987, metadata !"operator=", metadata !"operator=", metadata !"_ZN11ap_int_baseILi5ELb1ELb1EEaSEPKc", metadata !135, i32 1643, metadata !1084, i1 false, i1 false, i32 0, i32 0, null, i32 256, i1 false, null, null, i32 0, metadata !147, i32 1643} ; [ DW_TAG_subprogram ]
!1084 = metadata !{i32 786453, i32 0, metadata !"", i32 0, i32 0, i64 0, i64 0, i64 0, i32 0, null, metadata !1085, i32 0, i32 0} ; [ DW_TAG_subroutine_type ]
!1085 = metadata !{metadata !1079, metadata !1003, metadata !237}
!1086 = metadata !{i32 786478, i32 0, metadata !987, metadata !"set", metadata !"set", metadata !"_ZN11ap_int_baseILi5ELb1ELb1EE3setEPKca", metadata !135, i32 1651, metadata !1087, i1 false, i1 false, i32 0, i32 0, null, i32 256, i1 false, null, null, i32 0, metadata !147, i32 1651} ; [ DW_TAG_subprogram ]
!1087 = metadata !{i32 786453, i32 0, metadata !"", i32 0, i32 0, i64 0, i64 0, i64 0, i32 0, null, metadata !1088, i32 0, i32 0} ; [ DW_TAG_subroutine_type ]
!1088 = metadata !{metadata !1079, metadata !1003, metadata !237, metadata !183}
!1089 = metadata !{i32 786478, i32 0, metadata !987, metadata !"operator=", metadata !"operator=", metadata !"_ZN11ap_int_baseILi5ELb1ELb1EEaSEa", metadata !135, i32 1665, metadata !1090, i1 false, i1 false, i32 0, i32 0, null, i32 256, i1 false, null, null, i32 0, metadata !147, i32 1665} ; [ DW_TAG_subprogram ]
!1090 = metadata !{i32 786453, i32 0, metadata !"", i32 0, i32 0, i64 0, i64 0, i64 0, i32 0, null, metadata !1091, i32 0, i32 0} ; [ DW_TAG_subroutine_type ]
!1091 = metadata !{metadata !1079, metadata !1003, metadata !183}
!1092 = metadata !{i32 786478, i32 0, metadata !987, metadata !"operator=", metadata !"operator=", metadata !"_ZN11ap_int_baseILi5ELb1ELb1EEaSEh", metadata !135, i32 1666, metadata !1093, i1 false, i1 false, i32 0, i32 0, null, i32 256, i1 false, null, null, i32 0, metadata !147, i32 1666} ; [ DW_TAG_subprogram ]
!1093 = metadata !{i32 786453, i32 0, metadata !"", i32 0, i32 0, i64 0, i64 0, i64 0, i32 0, null, metadata !1094, i32 0, i32 0} ; [ DW_TAG_subroutine_type ]
!1094 = metadata !{metadata !1079, metadata !1003, metadata !187}
!1095 = metadata !{i32 786478, i32 0, metadata !987, metadata !"operator=", metadata !"operator=", metadata !"_ZN11ap_int_baseILi5ELb1ELb1EEaSEs", metadata !135, i32 1667, metadata !1096, i1 false, i1 false, i32 0, i32 0, null, i32 256, i1 false, null, null, i32 0, metadata !147, i32 1667} ; [ DW_TAG_subprogram ]
!1096 = metadata !{i32 786453, i32 0, metadata !"", i32 0, i32 0, i64 0, i64 0, i64 0, i32 0, null, metadata !1097, i32 0, i32 0} ; [ DW_TAG_subroutine_type ]
!1097 = metadata !{metadata !1079, metadata !1003, metadata !191}
!1098 = metadata !{i32 786478, i32 0, metadata !987, metadata !"operator=", metadata !"operator=", metadata !"_ZN11ap_int_baseILi5ELb1ELb1EEaSEt", metadata !135, i32 1668, metadata !1099, i1 false, i1 false, i32 0, i32 0, null, i32 256, i1 false, null, null, i32 0, metadata !147, i32 1668} ; [ DW_TAG_subprogram ]
!1099 = metadata !{i32 786453, i32 0, metadata !"", i32 0, i32 0, i64 0, i64 0, i64 0, i32 0, null, metadata !1100, i32 0, i32 0} ; [ DW_TAG_subroutine_type ]
!1100 = metadata !{metadata !1079, metadata !1003, metadata !195}
!1101 = metadata !{i32 786478, i32 0, metadata !987, metadata !"operator=", metadata !"operator=", metadata !"_ZN11ap_int_baseILi5ELb1ELb1EEaSEi", metadata !135, i32 1669, metadata !1102, i1 false, i1 false, i32 0, i32 0, null, i32 256, i1 false, null, null, i32 0, metadata !147, i32 1669} ; [ DW_TAG_subprogram ]
!1102 = metadata !{i32 786453, i32 0, metadata !"", i32 0, i32 0, i64 0, i64 0, i64 0, i32 0, null, metadata !1103, i32 0, i32 0} ; [ DW_TAG_subroutine_type ]
!1103 = metadata !{metadata !1079, metadata !1003, metadata !156}
!1104 = metadata !{i32 786478, i32 0, metadata !987, metadata !"operator=", metadata !"operator=", metadata !"_ZN11ap_int_baseILi5ELb1ELb1EEaSEj", metadata !135, i32 1670, metadata !1105, i1 false, i1 false, i32 0, i32 0, null, i32 256, i1 false, null, null, i32 0, metadata !147, i32 1670} ; [ DW_TAG_subprogram ]
!1105 = metadata !{i32 786453, i32 0, metadata !"", i32 0, i32 0, i64 0, i64 0, i64 0, i32 0, null, metadata !1106, i32 0, i32 0} ; [ DW_TAG_subroutine_type ]
!1106 = metadata !{metadata !1079, metadata !1003, metadata !202}
!1107 = metadata !{i32 786478, i32 0, metadata !987, metadata !"operator=", metadata !"operator=", metadata !"_ZN11ap_int_baseILi5ELb1ELb1EEaSEx", metadata !135, i32 1671, metadata !1108, i1 false, i1 false, i32 0, i32 0, null, i32 256, i1 false, null, null, i32 0, metadata !147, i32 1671} ; [ DW_TAG_subprogram ]
!1108 = metadata !{i32 786453, i32 0, metadata !"", i32 0, i32 0, i64 0, i64 0, i64 0, i32 0, null, metadata !1109, i32 0, i32 0} ; [ DW_TAG_subroutine_type ]
!1109 = metadata !{metadata !1079, metadata !1003, metadata !214}
!1110 = metadata !{i32 786478, i32 0, metadata !987, metadata !"operator=", metadata !"operator=", metadata !"_ZN11ap_int_baseILi5ELb1ELb1EEaSEy", metadata !135, i32 1672, metadata !1111, i1 false, i1 false, i32 0, i32 0, null, i32 256, i1 false, null, null, i32 0, metadata !147, i32 1672} ; [ DW_TAG_subprogram ]
!1111 = metadata !{i32 786453, i32 0, metadata !"", i32 0, i32 0, i64 0, i64 0, i64 0, i32 0, null, metadata !1112, i32 0, i32 0} ; [ DW_TAG_subroutine_type ]
!1112 = metadata !{metadata !1079, metadata !1003, metadata !219}
!1113 = metadata !{i32 786478, i32 0, metadata !987, metadata !"operator signed char", metadata !"operator signed char", metadata !"_ZNK11ap_int_baseILi5ELb1ELb1EEcvaEv", metadata !135, i32 1710, metadata !1114, i1 false, i1 false, i32 0, i32 0, null, i32 256, i1 false, null, null, i32 0, metadata !147, i32 1710} ; [ DW_TAG_subprogram ]
!1114 = metadata !{i32 786453, i32 0, metadata !"", i32 0, i32 0, i64 0, i64 0, i64 0, i32 0, null, metadata !1115, i32 0, i32 0} ; [ DW_TAG_subroutine_type ]
!1115 = metadata !{metadata !1116, metadata !1117}
!1116 = metadata !{i32 786454, metadata !987, metadata !"RetType", metadata !135, i32 1458, i64 0, i64 0, i64 0, i32 0, metadata !906} ; [ DW_TAG_typedef ]
!1117 = metadata !{i32 786447, i32 0, metadata !"", i32 0, i32 0, i64 64, i64 64, i64 0, i32 64, metadata !1008} ; [ DW_TAG_pointer_type ]
!1118 = metadata !{i32 786478, i32 0, metadata !987, metadata !"to_bool", metadata !"to_bool", metadata !"_ZNK11ap_int_baseILi5ELb1ELb1EE7to_boolEv", metadata !135, i32 1716, metadata !1119, i1 false, i1 false, i32 0, i32 0, null, i32 256, i1 false, null, null, i32 0, metadata !147, i32 1716} ; [ DW_TAG_subprogram ]
!1119 = metadata !{i32 786453, i32 0, metadata !"", i32 0, i32 0, i64 0, i64 0, i64 0, i32 0, null, metadata !1120, i32 0, i32 0} ; [ DW_TAG_subroutine_type ]
!1120 = metadata !{metadata !158, metadata !1117}
!1121 = metadata !{i32 786478, i32 0, metadata !987, metadata !"to_uchar", metadata !"to_uchar", metadata !"_ZNK11ap_int_baseILi5ELb1ELb1EE8to_ucharEv", metadata !135, i32 1717, metadata !1122, i1 false, i1 false, i32 0, i32 0, null, i32 256, i1 false, null, null, i32 0, metadata !147, i32 1717} ; [ DW_TAG_subprogram ]
!1122 = metadata !{i32 786453, i32 0, metadata !"", i32 0, i32 0, i64 0, i64 0, i64 0, i32 0, null, metadata !1123, i32 0, i32 0} ; [ DW_TAG_subroutine_type ]
!1123 = metadata !{metadata !187, metadata !1117}
!1124 = metadata !{i32 786478, i32 0, metadata !987, metadata !"to_char", metadata !"to_char", metadata !"_ZNK11ap_int_baseILi5ELb1ELb1EE7to_charEv", metadata !135, i32 1718, metadata !1125, i1 false, i1 false, i32 0, i32 0, null, i32 256, i1 false, null, null, i32 0, metadata !147, i32 1718} ; [ DW_TAG_subprogram ]
!1125 = metadata !{i32 786453, i32 0, metadata !"", i32 0, i32 0, i64 0, i64 0, i64 0, i32 0, null, metadata !1126, i32 0, i32 0} ; [ DW_TAG_subroutine_type ]
!1126 = metadata !{metadata !183, metadata !1117}
!1127 = metadata !{i32 786478, i32 0, metadata !987, metadata !"to_ushort", metadata !"to_ushort", metadata !"_ZNK11ap_int_baseILi5ELb1ELb1EE9to_ushortEv", metadata !135, i32 1719, metadata !1128, i1 false, i1 false, i32 0, i32 0, null, i32 256, i1 false, null, null, i32 0, metadata !147, i32 1719} ; [ DW_TAG_subprogram ]
!1128 = metadata !{i32 786453, i32 0, metadata !"", i32 0, i32 0, i64 0, i64 0, i64 0, i32 0, null, metadata !1129, i32 0, i32 0} ; [ DW_TAG_subroutine_type ]
!1129 = metadata !{metadata !195, metadata !1117}
!1130 = metadata !{i32 786478, i32 0, metadata !987, metadata !"to_short", metadata !"to_short", metadata !"_ZNK11ap_int_baseILi5ELb1ELb1EE8to_shortEv", metadata !135, i32 1720, metadata !1131, i1 false, i1 false, i32 0, i32 0, null, i32 256, i1 false, null, null, i32 0, metadata !147, i32 1720} ; [ DW_TAG_subprogram ]
!1131 = metadata !{i32 786453, i32 0, metadata !"", i32 0, i32 0, i64 0, i64 0, i64 0, i32 0, null, metadata !1132, i32 0, i32 0} ; [ DW_TAG_subroutine_type ]
!1132 = metadata !{metadata !191, metadata !1117}
!1133 = metadata !{i32 786478, i32 0, metadata !987, metadata !"to_int", metadata !"to_int", metadata !"_ZNK11ap_int_baseILi5ELb1ELb1EE6to_intEv", metadata !135, i32 1721, metadata !1134, i1 false, i1 false, i32 0, i32 0, null, i32 256, i1 false, null, null, i32 0, metadata !147, i32 1721} ; [ DW_TAG_subprogram ]
!1134 = metadata !{i32 786453, i32 0, metadata !"", i32 0, i32 0, i64 0, i64 0, i64 0, i32 0, null, metadata !1135, i32 0, i32 0} ; [ DW_TAG_subroutine_type ]
!1135 = metadata !{metadata !156, metadata !1117}
!1136 = metadata !{i32 786478, i32 0, metadata !987, metadata !"to_uint", metadata !"to_uint", metadata !"_ZNK11ap_int_baseILi5ELb1ELb1EE7to_uintEv", metadata !135, i32 1722, metadata !1137, i1 false, i1 false, i32 0, i32 0, null, i32 256, i1 false, null, null, i32 0, metadata !147, i32 1722} ; [ DW_TAG_subprogram ]
!1137 = metadata !{i32 786453, i32 0, metadata !"", i32 0, i32 0, i64 0, i64 0, i64 0, i32 0, null, metadata !1138, i32 0, i32 0} ; [ DW_TAG_subroutine_type ]
!1138 = metadata !{metadata !202, metadata !1117}
!1139 = metadata !{i32 786478, i32 0, metadata !987, metadata !"to_long", metadata !"to_long", metadata !"_ZNK11ap_int_baseILi5ELb1ELb1EE7to_longEv", metadata !135, i32 1723, metadata !1140, i1 false, i1 false, i32 0, i32 0, null, i32 256, i1 false, null, null, i32 0, metadata !147, i32 1723} ; [ DW_TAG_subprogram ]
!1140 = metadata !{i32 786453, i32 0, metadata !"", i32 0, i32 0, i64 0, i64 0, i64 0, i32 0, null, metadata !1141, i32 0, i32 0} ; [ DW_TAG_subroutine_type ]
!1141 = metadata !{metadata !206, metadata !1117}
!1142 = metadata !{i32 786478, i32 0, metadata !987, metadata !"to_ulong", metadata !"to_ulong", metadata !"_ZNK11ap_int_baseILi5ELb1ELb1EE8to_ulongEv", metadata !135, i32 1724, metadata !1143, i1 false, i1 false, i32 0, i32 0, null, i32 256, i1 false, null, null, i32 0, metadata !147, i32 1724} ; [ DW_TAG_subprogram ]
!1143 = metadata !{i32 786453, i32 0, metadata !"", i32 0, i32 0, i64 0, i64 0, i64 0, i32 0, null, metadata !1144, i32 0, i32 0} ; [ DW_TAG_subroutine_type ]
!1144 = metadata !{metadata !210, metadata !1117}
!1145 = metadata !{i32 786478, i32 0, metadata !987, metadata !"to_int64", metadata !"to_int64", metadata !"_ZNK11ap_int_baseILi5ELb1ELb1EE8to_int64Ev", metadata !135, i32 1725, metadata !1146, i1 false, i1 false, i32 0, i32 0, null, i32 256, i1 false, null, null, i32 0, metadata !147, i32 1725} ; [ DW_TAG_subprogram ]
!1146 = metadata !{i32 786453, i32 0, metadata !"", i32 0, i32 0, i64 0, i64 0, i64 0, i32 0, null, metadata !1147, i32 0, i32 0} ; [ DW_TAG_subroutine_type ]
!1147 = metadata !{metadata !214, metadata !1117}
!1148 = metadata !{i32 786478, i32 0, metadata !987, metadata !"to_uint64", metadata !"to_uint64", metadata !"_ZNK11ap_int_baseILi5ELb1ELb1EE9to_uint64Ev", metadata !135, i32 1726, metadata !1149, i1 false, i1 false, i32 0, i32 0, null, i32 256, i1 false, null, null, i32 0, metadata !147, i32 1726} ; [ DW_TAG_subprogram ]
!1149 = metadata !{i32 786453, i32 0, metadata !"", i32 0, i32 0, i64 0, i64 0, i64 0, i32 0, null, metadata !1150, i32 0, i32 0} ; [ DW_TAG_subroutine_type ]
!1150 = metadata !{metadata !219, metadata !1117}
!1151 = metadata !{i32 786478, i32 0, metadata !987, metadata !"to_double", metadata !"to_double", metadata !"_ZNK11ap_int_baseILi5ELb1ELb1EE9to_doubleEv", metadata !135, i32 1727, metadata !1152, i1 false, i1 false, i32 0, i32 0, null, i32 256, i1 false, null, null, i32 0, metadata !147, i32 1727} ; [ DW_TAG_subprogram ]
!1152 = metadata !{i32 786453, i32 0, metadata !"", i32 0, i32 0, i64 0, i64 0, i64 0, i32 0, null, metadata !1153, i32 0, i32 0} ; [ DW_TAG_subroutine_type ]
!1153 = metadata !{metadata !233, metadata !1117}
!1154 = metadata !{i32 786478, i32 0, metadata !987, metadata !"length", metadata !"length", metadata !"_ZNK11ap_int_baseILi5ELb1ELb1EE6lengthEv", metadata !135, i32 1741, metadata !1134, i1 false, i1 false, i32 0, i32 0, null, i32 256, i1 false, null, null, i32 0, metadata !147, i32 1741} ; [ DW_TAG_subprogram ]
!1155 = metadata !{i32 786478, i32 0, metadata !987, metadata !"length", metadata !"length", metadata !"_ZNVK11ap_int_baseILi5ELb1ELb1EE6lengthEv", metadata !135, i32 1742, metadata !1156, i1 false, i1 false, i32 0, i32 0, null, i32 256, i1 false, null, null, i32 0, metadata !147, i32 1742} ; [ DW_TAG_subprogram ]
!1156 = metadata !{i32 786453, i32 0, metadata !"", i32 0, i32 0, i64 0, i64 0, i64 0, i32 0, null, metadata !1157, i32 0, i32 0} ; [ DW_TAG_subroutine_type ]
!1157 = metadata !{metadata !156, metadata !1158}
!1158 = metadata !{i32 786447, i32 0, metadata !"", i32 0, i32 0, i64 64, i64 64, i64 0, i32 64, metadata !1015} ; [ DW_TAG_pointer_type ]
!1159 = metadata !{i32 786478, i32 0, metadata !987, metadata !"reverse", metadata !"reverse", metadata !"_ZN11ap_int_baseILi5ELb1ELb1EE7reverseEv", metadata !135, i32 1747, metadata !1160, i1 false, i1 false, i32 0, i32 0, null, i32 256, i1 false, null, null, i32 0, metadata !147, i32 1747} ; [ DW_TAG_subprogram ]
!1160 = metadata !{i32 786453, i32 0, metadata !"", i32 0, i32 0, i64 0, i64 0, i64 0, i32 0, null, metadata !1161, i32 0, i32 0} ; [ DW_TAG_subroutine_type ]
!1161 = metadata !{metadata !1079, metadata !1003}
!1162 = metadata !{i32 786478, i32 0, metadata !987, metadata !"iszero", metadata !"iszero", metadata !"_ZNK11ap_int_baseILi5ELb1ELb1EE6iszeroEv", metadata !135, i32 1753, metadata !1119, i1 false, i1 false, i32 0, i32 0, null, i32 256, i1 false, null, null, i32 0, metadata !147, i32 1753} ; [ DW_TAG_subprogram ]
!1163 = metadata !{i32 786478, i32 0, metadata !987, metadata !"is_zero", metadata !"is_zero", metadata !"_ZNK11ap_int_baseILi5ELb1ELb1EE7is_zeroEv", metadata !135, i32 1758, metadata !1119, i1 false, i1 false, i32 0, i32 0, null, i32 256, i1 false, null, null, i32 0, metadata !147, i32 1758} ; [ DW_TAG_subprogram ]
!1164 = metadata !{i32 786478, i32 0, metadata !987, metadata !"sign", metadata !"sign", metadata !"_ZNK11ap_int_baseILi5ELb1ELb1EE4signEv", metadata !135, i32 1763, metadata !1119, i1 false, i1 false, i32 0, i32 0, null, i32 256, i1 false, null, null, i32 0, metadata !147, i32 1763} ; [ DW_TAG_subprogram ]
!1165 = metadata !{i32 786478, i32 0, metadata !987, metadata !"clear", metadata !"clear", metadata !"_ZN11ap_int_baseILi5ELb1ELb1EE5clearEi", metadata !135, i32 1771, metadata !1033, i1 false, i1 false, i32 0, i32 0, null, i32 256, i1 false, null, null, i32 0, metadata !147, i32 1771} ; [ DW_TAG_subprogram ]
!1166 = metadata !{i32 786478, i32 0, metadata !987, metadata !"invert", metadata !"invert", metadata !"_ZN11ap_int_baseILi5ELb1ELb1EE6invertEi", metadata !135, i32 1777, metadata !1033, i1 false, i1 false, i32 0, i32 0, null, i32 256, i1 false, null, null, i32 0, metadata !147, i32 1777} ; [ DW_TAG_subprogram ]
!1167 = metadata !{i32 786478, i32 0, metadata !987, metadata !"test", metadata !"test", metadata !"_ZNK11ap_int_baseILi5ELb1ELb1EE4testEi", metadata !135, i32 1785, metadata !1168, i1 false, i1 false, i32 0, i32 0, null, i32 256, i1 false, null, null, i32 0, metadata !147, i32 1785} ; [ DW_TAG_subprogram ]
!1168 = metadata !{i32 786453, i32 0, metadata !"", i32 0, i32 0, i64 0, i64 0, i64 0, i32 0, null, metadata !1169, i32 0, i32 0} ; [ DW_TAG_subroutine_type ]
!1169 = metadata !{metadata !158, metadata !1117, metadata !156}
!1170 = metadata !{i32 786478, i32 0, metadata !987, metadata !"set", metadata !"set", metadata !"_ZN11ap_int_baseILi5ELb1ELb1EE3setEi", metadata !135, i32 1791, metadata !1033, i1 false, i1 false, i32 0, i32 0, null, i32 256, i1 false, null, null, i32 0, metadata !147, i32 1791} ; [ DW_TAG_subprogram ]
!1171 = metadata !{i32 786478, i32 0, metadata !987, metadata !"set", metadata !"set", metadata !"_ZN11ap_int_baseILi5ELb1ELb1EE3setEib", metadata !135, i32 1797, metadata !1172, i1 false, i1 false, i32 0, i32 0, null, i32 256, i1 false, null, null, i32 0, metadata !147, i32 1797} ; [ DW_TAG_subprogram ]
!1172 = metadata !{i32 786453, i32 0, metadata !"", i32 0, i32 0, i64 0, i64 0, i64 0, i32 0, null, metadata !1173, i32 0, i32 0} ; [ DW_TAG_subroutine_type ]
!1173 = metadata !{null, metadata !1003, metadata !156, metadata !158}
!1174 = metadata !{i32 786478, i32 0, metadata !987, metadata !"lrotate", metadata !"lrotate", metadata !"_ZN11ap_int_baseILi5ELb1ELb1EE7lrotateEi", metadata !135, i32 1804, metadata !1033, i1 false, i1 false, i32 0, i32 0, null, i32 256, i1 false, null, null, i32 0, metadata !147, i32 1804} ; [ DW_TAG_subprogram ]
!1175 = metadata !{i32 786478, i32 0, metadata !987, metadata !"rrotate", metadata !"rrotate", metadata !"_ZN11ap_int_baseILi5ELb1ELb1EE7rrotateEi", metadata !135, i32 1813, metadata !1033, i1 false, i1 false, i32 0, i32 0, null, i32 256, i1 false, null, null, i32 0, metadata !147, i32 1813} ; [ DW_TAG_subprogram ]
!1176 = metadata !{i32 786478, i32 0, metadata !987, metadata !"set_bit", metadata !"set_bit", metadata !"_ZN11ap_int_baseILi5ELb1ELb1EE7set_bitEib", metadata !135, i32 1821, metadata !1172, i1 false, i1 false, i32 0, i32 0, null, i32 256, i1 false, null, null, i32 0, metadata !147, i32 1821} ; [ DW_TAG_subprogram ]
!1177 = metadata !{i32 786478, i32 0, metadata !987, metadata !"get_bit", metadata !"get_bit", metadata !"_ZNK11ap_int_baseILi5ELb1ELb1EE7get_bitEi", metadata !135, i32 1826, metadata !1168, i1 false, i1 false, i32 0, i32 0, null, i32 256, i1 false, null, null, i32 0, metadata !147, i32 1826} ; [ DW_TAG_subprogram ]
!1178 = metadata !{i32 786478, i32 0, metadata !987, metadata !"b_not", metadata !"b_not", metadata !"_ZN11ap_int_baseILi5ELb1ELb1EE5b_notEv", metadata !135, i32 1831, metadata !1001, i1 false, i1 false, i32 0, i32 0, null, i32 256, i1 false, null, null, i32 0, metadata !147, i32 1831} ; [ DW_TAG_subprogram ]
!1179 = metadata !{i32 786478, i32 0, metadata !987, metadata !"countLeadingZeros", metadata !"countLeadingZeros", metadata !"_ZN11ap_int_baseILi5ELb1ELb1EE17countLeadingZerosEv", metadata !135, i32 1838, metadata !1180, i1 false, i1 false, i32 0, i32 0, null, i32 256, i1 false, null, null, i32 0, metadata !147, i32 1838} ; [ DW_TAG_subprogram ]
!1180 = metadata !{i32 786453, i32 0, metadata !"", i32 0, i32 0, i64 0, i64 0, i64 0, i32 0, null, metadata !1181, i32 0, i32 0} ; [ DW_TAG_subroutine_type ]
!1181 = metadata !{metadata !156, metadata !1003}
!1182 = metadata !{i32 786478, i32 0, metadata !987, metadata !"operator++", metadata !"operator++", metadata !"_ZN11ap_int_baseILi5ELb1ELb1EEppEv", metadata !135, i32 1895, metadata !1160, i1 false, i1 false, i32 0, i32 0, null, i32 256, i1 false, null, null, i32 0, metadata !147, i32 1895} ; [ DW_TAG_subprogram ]
!1183 = metadata !{i32 786478, i32 0, metadata !987, metadata !"operator--", metadata !"operator--", metadata !"_ZN11ap_int_baseILi5ELb1ELb1EEmmEv", metadata !135, i32 1899, metadata !1160, i1 false, i1 false, i32 0, i32 0, null, i32 256, i1 false, null, null, i32 0, metadata !147, i32 1899} ; [ DW_TAG_subprogram ]
!1184 = metadata !{i32 786478, i32 0, metadata !987, metadata !"operator++", metadata !"operator++", metadata !"_ZN11ap_int_baseILi5ELb1ELb1EEppEi", metadata !135, i32 1907, metadata !1185, i1 false, i1 false, i32 0, i32 0, null, i32 256, i1 false, null, null, i32 0, metadata !147, i32 1907} ; [ DW_TAG_subprogram ]
!1185 = metadata !{i32 786453, i32 0, metadata !"", i32 0, i32 0, i64 0, i64 0, i64 0, i32 0, null, metadata !1186, i32 0, i32 0} ; [ DW_TAG_subroutine_type ]
!1186 = metadata !{metadata !1008, metadata !1003, metadata !156}
!1187 = metadata !{i32 786478, i32 0, metadata !987, metadata !"operator--", metadata !"operator--", metadata !"_ZN11ap_int_baseILi5ELb1ELb1EEmmEi", metadata !135, i32 1912, metadata !1185, i1 false, i1 false, i32 0, i32 0, null, i32 256, i1 false, null, null, i32 0, metadata !147, i32 1912} ; [ DW_TAG_subprogram ]
!1188 = metadata !{i32 786478, i32 0, metadata !987, metadata !"operator+", metadata !"operator+", metadata !"_ZNK11ap_int_baseILi5ELb1ELb1EEpsEv", metadata !135, i32 1921, metadata !1189, i1 false, i1 false, i32 0, i32 0, null, i32 256, i1 false, null, null, i32 0, metadata !147, i32 1921} ; [ DW_TAG_subprogram ]
!1189 = metadata !{i32 786453, i32 0, metadata !"", i32 0, i32 0, i64 0, i64 0, i64 0, i32 0, null, metadata !1190, i32 0, i32 0} ; [ DW_TAG_subroutine_type ]
!1190 = metadata !{metadata !987, metadata !1117}
!1191 = metadata !{i32 786478, i32 0, metadata !987, metadata !"operator!", metadata !"operator!", metadata !"_ZNK11ap_int_baseILi5ELb1ELb1EEntEv", metadata !135, i32 1927, metadata !1119, i1 false, i1 false, i32 0, i32 0, null, i32 256, i1 false, null, null, i32 0, metadata !147, i32 1927} ; [ DW_TAG_subprogram ]
!1192 = metadata !{i32 786478, i32 0, metadata !987, metadata !"operator-", metadata !"operator-", metadata !"_ZNK11ap_int_baseILi5ELb1ELb1EEngEv", metadata !135, i32 1932, metadata !1193, i1 false, i1 false, i32 0, i32 0, null, i32 256, i1 false, null, null, i32 0, metadata !147, i32 1932} ; [ DW_TAG_subprogram ]
!1193 = metadata !{i32 786453, i32 0, metadata !"", i32 0, i32 0, i64 0, i64 0, i64 0, i32 0, null, metadata !1194, i32 0, i32 0} ; [ DW_TAG_subroutine_type ]
!1194 = metadata !{metadata !1195, metadata !1117}
!1195 = metadata !{i32 786434, null, metadata !"ap_int_base<6, true, true>", metadata !135, i32 651, i32 0, i32 0, i32 0, i32 4, null, null, i32 0} ; [ DW_TAG_class_type ]
!1196 = metadata !{i32 786478, i32 0, metadata !987, metadata !"range", metadata !"range", metadata !"_ZN11ap_int_baseILi5ELb1ELb1EE5rangeEii", metadata !135, i32 2062, metadata !1197, i1 false, i1 false, i32 0, i32 0, null, i32 256, i1 false, null, null, i32 0, metadata !147, i32 2062} ; [ DW_TAG_subprogram ]
!1197 = metadata !{i32 786453, i32 0, metadata !"", i32 0, i32 0, i64 0, i64 0, i64 0, i32 0, null, metadata !1198, i32 0, i32 0} ; [ DW_TAG_subroutine_type ]
!1198 = metadata !{metadata !1199, metadata !1003, metadata !156, metadata !156}
!1199 = metadata !{i32 786434, null, metadata !"ap_range_ref<5, true>", metadata !135, i32 925, i32 0, i32 0, i32 0, i32 4, null, null, i32 0} ; [ DW_TAG_class_type ]
!1200 = metadata !{i32 786478, i32 0, metadata !987, metadata !"operator()", metadata !"operator()", metadata !"_ZN11ap_int_baseILi5ELb1ELb1EEclEii", metadata !135, i32 2068, metadata !1197, i1 false, i1 false, i32 0, i32 0, null, i32 256, i1 false, null, null, i32 0, metadata !147, i32 2068} ; [ DW_TAG_subprogram ]
!1201 = metadata !{i32 786478, i32 0, metadata !987, metadata !"range", metadata !"range", metadata !"_ZNK11ap_int_baseILi5ELb1ELb1EE5rangeEii", metadata !135, i32 2074, metadata !1202, i1 false, i1 false, i32 0, i32 0, null, i32 256, i1 false, null, null, i32 0, metadata !147, i32 2074} ; [ DW_TAG_subprogram ]
!1202 = metadata !{i32 786453, i32 0, metadata !"", i32 0, i32 0, i64 0, i64 0, i64 0, i32 0, null, metadata !1203, i32 0, i32 0} ; [ DW_TAG_subroutine_type ]
!1203 = metadata !{metadata !1199, metadata !1117, metadata !156, metadata !156}
!1204 = metadata !{i32 786478, i32 0, metadata !987, metadata !"operator()", metadata !"operator()", metadata !"_ZNK11ap_int_baseILi5ELb1ELb1EEclEii", metadata !135, i32 2080, metadata !1202, i1 false, i1 false, i32 0, i32 0, null, i32 256, i1 false, null, null, i32 0, metadata !147, i32 2080} ; [ DW_TAG_subprogram ]
!1205 = metadata !{i32 786478, i32 0, metadata !987, metadata !"operator[]", metadata !"operator[]", metadata !"_ZN11ap_int_baseILi5ELb1ELb1EEixEi", metadata !135, i32 2099, metadata !1206, i1 false, i1 false, i32 0, i32 0, null, i32 256, i1 false, null, null, i32 0, metadata !147, i32 2099} ; [ DW_TAG_subprogram ]
!1206 = metadata !{i32 786453, i32 0, metadata !"", i32 0, i32 0, i64 0, i64 0, i64 0, i32 0, null, metadata !1207, i32 0, i32 0} ; [ DW_TAG_subroutine_type ]
!1207 = metadata !{metadata !1208, metadata !1003, metadata !156}
!1208 = metadata !{i32 786434, null, metadata !"ap_bit_ref<5, true>", metadata !135, i32 1249, i32 0, i32 0, i32 0, i32 4, null, null, i32 0} ; [ DW_TAG_class_type ]
!1209 = metadata !{i32 786478, i32 0, metadata !987, metadata !"operator[]", metadata !"operator[]", metadata !"_ZNK11ap_int_baseILi5ELb1ELb1EEixEi", metadata !135, i32 2113, metadata !1168, i1 false, i1 false, i32 0, i32 0, null, i32 256, i1 false, null, null, i32 0, metadata !147, i32 2113} ; [ DW_TAG_subprogram ]
!1210 = metadata !{i32 786478, i32 0, metadata !987, metadata !"bit", metadata !"bit", metadata !"_ZN11ap_int_baseILi5ELb1ELb1EE3bitEi", metadata !135, i32 2127, metadata !1206, i1 false, i1 false, i32 0, i32 0, null, i32 256, i1 false, null, null, i32 0, metadata !147, i32 2127} ; [ DW_TAG_subprogram ]
!1211 = metadata !{i32 786478, i32 0, metadata !987, metadata !"bit", metadata !"bit", metadata !"_ZNK11ap_int_baseILi5ELb1ELb1EE3bitEi", metadata !135, i32 2141, metadata !1168, i1 false, i1 false, i32 0, i32 0, null, i32 256, i1 false, null, null, i32 0, metadata !147, i32 2141} ; [ DW_TAG_subprogram ]
!1212 = metadata !{i32 786478, i32 0, metadata !987, metadata !"and_reduce", metadata !"and_reduce", metadata !"_ZN11ap_int_baseILi5ELb1ELb1EE10and_reduceEv", metadata !135, i32 2321, metadata !1213, i1 false, i1 false, i32 0, i32 0, null, i32 256, i1 false, null, null, i32 0, metadata !147, i32 2321} ; [ DW_TAG_subprogram ]
!1213 = metadata !{i32 786453, i32 0, metadata !"", i32 0, i32 0, i64 0, i64 0, i64 0, i32 0, null, metadata !1214, i32 0, i32 0} ; [ DW_TAG_subroutine_type ]
!1214 = metadata !{metadata !158, metadata !1003}
!1215 = metadata !{i32 786478, i32 0, metadata !987, metadata !"nand_reduce", metadata !"nand_reduce", metadata !"_ZN11ap_int_baseILi5ELb1ELb1EE11nand_reduceEv", metadata !135, i32 2324, metadata !1213, i1 false, i1 false, i32 0, i32 0, null, i32 256, i1 false, null, null, i32 0, metadata !147, i32 2324} ; [ DW_TAG_subprogram ]
!1216 = metadata !{i32 786478, i32 0, metadata !987, metadata !"or_reduce", metadata !"or_reduce", metadata !"_ZN11ap_int_baseILi5ELb1ELb1EE9or_reduceEv", metadata !135, i32 2327, metadata !1213, i1 false, i1 false, i32 0, i32 0, null, i32 256, i1 false, null, null, i32 0, metadata !147, i32 2327} ; [ DW_TAG_subprogram ]
!1217 = metadata !{i32 786478, i32 0, metadata !987, metadata !"nor_reduce", metadata !"nor_reduce", metadata !"_ZN11ap_int_baseILi5ELb1ELb1EE10nor_reduceEv", metadata !135, i32 2330, metadata !1213, i1 false, i1 false, i32 0, i32 0, null, i32 256, i1 false, null, null, i32 0, metadata !147, i32 2330} ; [ DW_TAG_subprogram ]
!1218 = metadata !{i32 786478, i32 0, metadata !987, metadata !"xor_reduce", metadata !"xor_reduce", metadata !"_ZN11ap_int_baseILi5ELb1ELb1EE10xor_reduceEv", metadata !135, i32 2333, metadata !1213, i1 false, i1 false, i32 0, i32 0, null, i32 256, i1 false, null, null, i32 0, metadata !147, i32 2333} ; [ DW_TAG_subprogram ]
!1219 = metadata !{i32 786478, i32 0, metadata !987, metadata !"xnor_reduce", metadata !"xnor_reduce", metadata !"_ZN11ap_int_baseILi5ELb1ELb1EE11xnor_reduceEv", metadata !135, i32 2336, metadata !1213, i1 false, i1 false, i32 0, i32 0, null, i32 256, i1 false, null, null, i32 0, metadata !147, i32 2336} ; [ DW_TAG_subprogram ]
!1220 = metadata !{i32 786478, i32 0, metadata !987, metadata !"and_reduce", metadata !"and_reduce", metadata !"_ZNK11ap_int_baseILi5ELb1ELb1EE10and_reduceEv", metadata !135, i32 2340, metadata !1119, i1 false, i1 false, i32 0, i32 0, null, i32 256, i1 false, null, null, i32 0, metadata !147, i32 2340} ; [ DW_TAG_subprogram ]
!1221 = metadata !{i32 786478, i32 0, metadata !987, metadata !"nand_reduce", metadata !"nand_reduce", metadata !"_ZNK11ap_int_baseILi5ELb1ELb1EE11nand_reduceEv", metadata !135, i32 2343, metadata !1119, i1 false, i1 false, i32 0, i32 0, null, i32 256, i1 false, null, null, i32 0, metadata !147, i32 2343} ; [ DW_TAG_subprogram ]
